
02_DMA_SPI.elf:     file format elf32-littlearm

Sections:
Idx Name          Size      VMA       LMA       File off  Algn
  0 .isr_vector   000001f8  08000000  08000000  00001000  2**0
                  CONTENTS, ALLOC, LOAD, READONLY, DATA
  1 .text         00000cfc  080001f8  080001f8  000011f8  2**2
                  CONTENTS, ALLOC, LOAD, READONLY, CODE
  2 .rodata       00000778  08000ef4  08000ef4  00001ef4  2**2
                  CONTENTS, ALLOC, LOAD, READONLY, DATA
  3 .ARM.extab    00000000  0800166c  0800166c  00003010  2**0
                  CONTENTS, READONLY
  4 .ARM          00000000  0800166c  0800166c  00003010  2**0
                  CONTENTS, READONLY
  5 .preinit_array 00000000  0800166c  0800166c  00003010  2**0
                  CONTENTS, ALLOC, LOAD, DATA
  6 .init_array   00000004  0800166c  0800166c  0000266c  2**2
                  CONTENTS, ALLOC, LOAD, READONLY, DATA
  7 .fini_array   00000004  08001670  08001670  00002670  2**2
                  CONTENTS, ALLOC, LOAD, READONLY, DATA
  8 .data         00000010  20000000  08001674  00003000  2**2
                  CONTENTS, ALLOC, LOAD, DATA
  9 .bss          00000020  20000010  08001684  00003010  2**2
                  ALLOC
 10 ._user_heap_stack 00000600  20000030  08001684  00003030  2**0
                  ALLOC
 11 .ARM.attributes 0000002e  00000000  00000000  00003010  2**0
                  CONTENTS, READONLY
 12 .debug_info   00002d74  00000000  00000000  0000303e  2**0
                  CONTENTS, READONLY, DEBUGGING, OCTETS
 13 .debug_abbrev 00000c27  00000000  00000000  00005db2  2**0
                  CONTENTS, READONLY, DEBUGGING, OCTETS
 14 .debug_aranges 00000358  00000000  00000000  000069e0  2**3
                  CONTENTS, READONLY, DEBUGGING, OCTETS
 15 .debug_rnglists 00000254  00000000  00000000  00006d38  2**0
                  CONTENTS, READONLY, DEBUGGING, OCTETS
 16 .debug_macro  00026dba  00000000  00000000  00006f8c  2**0
                  CONTENTS, READONLY, DEBUGGING, OCTETS
 17 .debug_line   00004546  00000000  00000000  0002dd46  2**0
                  CONTENTS, READONLY, DEBUGGING, OCTETS
 18 .debug_str    000f33ff  00000000  00000000  0003228c  2**0
                  CONTENTS, READONLY, DEBUGGING, OCTETS
 19 .comment      00000043  00000000  00000000  0012568b  2**0
                  CONTENTS, READONLY
 20 .debug_frame  0000097c  00000000  00000000  001256d0  2**2
                  CONTENTS, READONLY, DEBUGGING, OCTETS
 21 .debug_line_str 00000071  00000000  00000000  0012604c  2**0
                  CONTENTS, READONLY, DEBUGGING, OCTETS

Disassembly of section .text:

080001f8 <__do_global_dtors_aux>:
 80001f8:	b510      	push	{r4, lr}
 80001fa:	4c05      	ldr	r4, [pc, #20]	@ (8000210 <__do_global_dtors_aux+0x18>)
 80001fc:	7823      	ldrb	r3, [r4, #0]
 80001fe:	b933      	cbnz	r3, 800020e <__do_global_dtors_aux+0x16>
 8000200:	4b04      	ldr	r3, [pc, #16]	@ (8000214 <__do_global_dtors_aux+0x1c>)
 8000202:	b113      	cbz	r3, 800020a <__do_global_dtors_aux+0x12>
 8000204:	4804      	ldr	r0, [pc, #16]	@ (8000218 <__do_global_dtors_aux+0x20>)
 8000206:	f3af 8000 	nop.w
 800020a:	2301      	movs	r3, #1
 800020c:	7023      	strb	r3, [r4, #0]
 800020e:	bd10      	pop	{r4, pc}
 8000210:	20000010 	.word	0x20000010
 8000214:	00000000 	.word	0x00000000
 8000218:	08000edc 	.word	0x08000edc

0800021c <frame_dummy>:
 800021c:	b508      	push	{r3, lr}
 800021e:	4b03      	ldr	r3, [pc, #12]	@ (800022c <frame_dummy+0x10>)
 8000220:	b11b      	cbz	r3, 800022a <frame_dummy+0xe>
 8000222:	4903      	ldr	r1, [pc, #12]	@ (8000230 <frame_dummy+0x14>)
 8000224:	4803      	ldr	r0, [pc, #12]	@ (8000234 <frame_dummy+0x18>)
 8000226:	f3af 8000 	nop.w
 800022a:	bd08      	pop	{r3, pc}
 800022c:	00000000 	.word	0x00000000
 8000230:	20000014 	.word	0x20000014
 8000234:	08000edc 	.word	0x08000edc

08000238 <DMA_Init>:


uint32_t src_data[4] = {0x12345678, 0xABCDEF01, 0x98765432, 0xDEADBEEF};
uint32_t dest_data[4] = {0,};

void DMA_Init(){
 8000238:	b480      	push	{r7}
 800023a:	b083      	sub	sp, #12
 800023c:	af00      	add	r7, sp, #0
	RCC->AHB1ENR |= (1 << 21); //DMA1번 켜기
 800023e:	4b0a      	ldr	r3, [pc, #40]	@ (8000268 <DMA_Init+0x30>)
 8000240:	6b1b      	ldr	r3, [r3, #48]	@ 0x30
 8000242:	4a09      	ldr	r2, [pc, #36]	@ (8000268 <DMA_Init+0x30>)
 8000244:	f443 1300 	orr.w	r3, r3, #2097152	@ 0x200000
 8000248:	6313      	str	r3, [r2, #48]	@ 0x30
	RCC->AHB1ENR |= (1 << 22); //DMA2번 켜기
 800024a:	4b07      	ldr	r3, [pc, #28]	@ (8000268 <DMA_Init+0x30>)
 800024c:	6b1b      	ldr	r3, [r3, #48]	@ 0x30
 800024e:	4a06      	ldr	r2, [pc, #24]	@ (8000268 <DMA_Init+0x30>)
 8000250:	f443 0380 	orr.w	r3, r3, #4194304	@ 0x400000
 8000254:	6313      	str	r3, [r2, #48]	@ 0x30
	uint32_t dummy = RCC->AHB1ENR;
 8000256:	4b04      	ldr	r3, [pc, #16]	@ (8000268 <DMA_Init+0x30>)
 8000258:	6b1b      	ldr	r3, [r3, #48]	@ 0x30
 800025a:	607b      	str	r3, [r7, #4]
	(void)dummy;

	//시작
	//RCC->CR |= (1<<16);
	//while(!(RCC->CR&(1<<17)));
}
 800025c:	bf00      	nop
 800025e:	370c      	adds	r7, #12
 8000260:	46bd      	mov	sp, r7
 8000262:	f85d 7b04 	ldr.w	r7, [sp], #4
 8000266:	4770      	bx	lr
 8000268:	40023800 	.word	0x40023800

0800026c <ST7735_Init>:

FontDef Font_7x10 = {7,10,Font7x10};
FontDef Font_11x18 = {11,18,Font11x18};
FontDef Font_16x26 = {16,26,Font16x26};

void ST7735_Init() {
 800026c:	b580      	push	{r7, lr}
 800026e:	af00      	add	r7, sp, #0
	GPIO_Clock_Enable(GPIOF);
 8000270:	4819      	ldr	r0, [pc, #100]	@ (80002d8 <ST7735_Init+0x6c>)
 8000272:	f000 f9f9 	bl	8000668 <GPIO_Clock_Enable>
	GPIO_pin_Mode(GPIOF, 12, 1); //A0
 8000276:	2201      	movs	r2, #1
 8000278:	210c      	movs	r1, #12
 800027a:	4817      	ldr	r0, [pc, #92]	@ (80002d8 <ST7735_Init+0x6c>)
 800027c:	f000 f9b0 	bl	80005e0 <GPIO_pin_Mode>
	GPIO_Speed_Set(GPIOF, 12, 3);
 8000280:	2203      	movs	r2, #3
 8000282:	210c      	movs	r1, #12
 8000284:	4814      	ldr	r0, [pc, #80]	@ (80002d8 <ST7735_Init+0x6c>)
 8000286:	f000 fa8d 	bl	80007a4 <GPIO_Speed_Set>
	GPIO_pin_Mode(GPIOF, 13, 1); // RESET
 800028a:	2201      	movs	r2, #1
 800028c:	210d      	movs	r1, #13
 800028e:	4812      	ldr	r0, [pc, #72]	@ (80002d8 <ST7735_Init+0x6c>)
 8000290:	f000 f9a6 	bl	80005e0 <GPIO_pin_Mode>
	GPIO_Speed_Set(GPIOF, 13, 3);
 8000294:	2203      	movs	r2, #3
 8000296:	210d      	movs	r1, #13
 8000298:	480f      	ldr	r0, [pc, #60]	@ (80002d8 <ST7735_Init+0x6c>)
 800029a:	f000 fa83 	bl	80007a4 <GPIO_Speed_Set>
    ST7735_HW_Reset(); // 이전에 만든 리셋 함수 호출
 800029e:	f000 f87b 	bl	8000398 <ST7735_HW_Reset>

    ST7735_WriteCommand(0x01); // Software Reset
 80002a2:	2001      	movs	r0, #1
 80002a4:	f000 f88c 	bl	80003c0 <ST7735_WriteCommand>
    delay_ms(150);
 80002a8:	2096      	movs	r0, #150	@ 0x96
 80002aa:	f000 fc15 	bl	8000ad8 <delay_ms>

    ST7735_WriteCommand(0x11); // Sleep Out
 80002ae:	2011      	movs	r0, #17
 80002b0:	f000 f886 	bl	80003c0 <ST7735_WriteCommand>
    delay_ms(150);
 80002b4:	2096      	movs	r0, #150	@ 0x96
 80002b6:	f000 fc0f 	bl	8000ad8 <delay_ms>

    // 색상 포맷 설정 (16-bit color)
    ST7735_WriteCommand(0x3A);
 80002ba:	203a      	movs	r0, #58	@ 0x3a
 80002bc:	f000 f880 	bl	80003c0 <ST7735_WriteCommand>
    ST7735_WriteData(0x05);
 80002c0:	2005      	movs	r0, #5
 80002c2:	f000 f89b 	bl	80003fc <ST7735_WriteData>

    // 디스플레이 켜기
    ST7735_WriteCommand(0x29);
 80002c6:	2029      	movs	r0, #41	@ 0x29
 80002c8:	f000 f87a 	bl	80003c0 <ST7735_WriteCommand>

    delay_ms(100);
 80002cc:	2064      	movs	r0, #100	@ 0x64
 80002ce:	f000 fc03 	bl	8000ad8 <delay_ms>
}
 80002d2:	bf00      	nop
 80002d4:	bd80      	pop	{r7, pc}
 80002d6:	bf00      	nop
 80002d8:	40021400 	.word	0x40021400

080002dc <ST7735_SetAddressWindow>:
void ST7735_SetAddressWindow(uint8_t x0, uint8_t y0, uint8_t x1, uint8_t y1) {
 80002dc:	b590      	push	{r4, r7, lr}
 80002de:	b083      	sub	sp, #12
 80002e0:	af00      	add	r7, sp, #0
 80002e2:	4604      	mov	r4, r0
 80002e4:	4608      	mov	r0, r1
 80002e6:	4611      	mov	r1, r2
 80002e8:	461a      	mov	r2, r3
 80002ea:	4623      	mov	r3, r4
 80002ec:	71fb      	strb	r3, [r7, #7]
 80002ee:	4603      	mov	r3, r0
 80002f0:	71bb      	strb	r3, [r7, #6]
 80002f2:	460b      	mov	r3, r1
 80002f4:	717b      	strb	r3, [r7, #5]
 80002f6:	4613      	mov	r3, r2
 80002f8:	713b      	strb	r3, [r7, #4]
    ST7735_WriteCommand(0x2A); // Column Address Set
 80002fa:	202a      	movs	r0, #42	@ 0x2a
 80002fc:	f000 f860 	bl	80003c0 <ST7735_WriteCommand>
    ST7735_WriteData(0x00);
 8000300:	2000      	movs	r0, #0
 8000302:	f000 f87b 	bl	80003fc <ST7735_WriteData>
    ST7735_WriteData(x0);
 8000306:	79fb      	ldrb	r3, [r7, #7]
 8000308:	4618      	mov	r0, r3
 800030a:	f000 f877 	bl	80003fc <ST7735_WriteData>
    ST7735_WriteData(0x00);
 800030e:	2000      	movs	r0, #0
 8000310:	f000 f874 	bl	80003fc <ST7735_WriteData>
    ST7735_WriteData(x1);
 8000314:	797b      	ldrb	r3, [r7, #5]
 8000316:	4618      	mov	r0, r3
 8000318:	f000 f870 	bl	80003fc <ST7735_WriteData>

    ST7735_WriteCommand(0x2B); // Row Address Set
 800031c:	202b      	movs	r0, #43	@ 0x2b
 800031e:	f000 f84f 	bl	80003c0 <ST7735_WriteCommand>
    ST7735_WriteData(0x00);
 8000322:	2000      	movs	r0, #0
 8000324:	f000 f86a 	bl	80003fc <ST7735_WriteData>
    ST7735_WriteData(y0);
 8000328:	79bb      	ldrb	r3, [r7, #6]
 800032a:	4618      	mov	r0, r3
 800032c:	f000 f866 	bl	80003fc <ST7735_WriteData>
    ST7735_WriteData(0x00);
 8000330:	2000      	movs	r0, #0
 8000332:	f000 f863 	bl	80003fc <ST7735_WriteData>
    ST7735_WriteData(y1);
 8000336:	793b      	ldrb	r3, [r7, #4]
 8000338:	4618      	mov	r0, r3
 800033a:	f000 f85f 	bl	80003fc <ST7735_WriteData>

    ST7735_WriteCommand(0x2C); // Memory Write
 800033e:	202c      	movs	r0, #44	@ 0x2c
 8000340:	f000 f83e 	bl	80003c0 <ST7735_WriteCommand>
}
 8000344:	bf00      	nop
 8000346:	370c      	adds	r7, #12
 8000348:	46bd      	mov	sp, r7
 800034a:	bd90      	pop	{r4, r7, pc}

0800034c <ST7735_FillScreen>:
void ST7735_FillScreen(uint16_t color) {
 800034c:	b580      	push	{r7, lr}
 800034e:	b084      	sub	sp, #16
 8000350:	af00      	add	r7, sp, #0
 8000352:	4603      	mov	r3, r0
 8000354:	80fb      	strh	r3, [r7, #6]
    ST7735_SetAddressWindow(0, 0, 127, 159);
 8000356:	239f      	movs	r3, #159	@ 0x9f
 8000358:	227f      	movs	r2, #127	@ 0x7f
 800035a:	2100      	movs	r1, #0
 800035c:	2000      	movs	r0, #0
 800035e:	f7ff ffbd 	bl	80002dc <ST7735_SetAddressWindow>
    for (int i = 0; i < 128 * 160; i++) {
 8000362:	2300      	movs	r3, #0
 8000364:	60fb      	str	r3, [r7, #12]
 8000366:	e00e      	b.n	8000386 <ST7735_FillScreen+0x3a>
            ST7735_WriteData(color >> 8);   // 색상의 상위 8비트
 8000368:	88fb      	ldrh	r3, [r7, #6]
 800036a:	0a1b      	lsrs	r3, r3, #8
 800036c:	b29b      	uxth	r3, r3
 800036e:	b2db      	uxtb	r3, r3
 8000370:	4618      	mov	r0, r3
 8000372:	f000 f843 	bl	80003fc <ST7735_WriteData>
            ST7735_WriteData(color & 0xFF); // 색상의 하위 8비트
 8000376:	88fb      	ldrh	r3, [r7, #6]
 8000378:	b2db      	uxtb	r3, r3
 800037a:	4618      	mov	r0, r3
 800037c:	f000 f83e 	bl	80003fc <ST7735_WriteData>
    for (int i = 0; i < 128 * 160; i++) {
 8000380:	68fb      	ldr	r3, [r7, #12]
 8000382:	3301      	adds	r3, #1
 8000384:	60fb      	str	r3, [r7, #12]
 8000386:	68fb      	ldr	r3, [r7, #12]
 8000388:	f5b3 4fa0 	cmp.w	r3, #20480	@ 0x5000
 800038c:	dbec      	blt.n	8000368 <ST7735_FillScreen+0x1c>
        }
}
 800038e:	bf00      	nop
 8000390:	bf00      	nop
 8000392:	3710      	adds	r7, #16
 8000394:	46bd      	mov	sp, r7
 8000396:	bd80      	pop	{r7, pc}

08000398 <ST7735_HW_Reset>:
void ST7735_HW_Reset() {
 8000398:	b580      	push	{r7, lr}
 800039a:	af00      	add	r7, sp, #0
    RESET_pin_set();   // 1. 일단 High로 시작
 800039c:	f000 f908 	bl	80005b0 <RESET_pin_set>
    delay_ms(10);     // 잠시 대기
 80003a0:	200a      	movs	r0, #10
 80003a2:	f000 fb99 	bl	8000ad8 <delay_ms>

    RESET_pin_reset(); // 2. Low로 떨어뜨려 리셋 신호 발생
 80003a6:	f000 f90f 	bl	80005c8 <RESET_pin_reset>
    delay_ms(20);    // 데이터시트상 최소 시간 유지 (보통 10~20ms)
 80003aa:	2014      	movs	r0, #20
 80003ac:	f000 fb94 	bl	8000ad8 <delay_ms>

    RESET_pin_set();   // 3. 다시 High로 올려서 리셋 종료
 80003b0:	f000 f8fe 	bl	80005b0 <RESET_pin_set>
    delay_ms(100);    // 4. 칩이 내부 정리를 마칠 때까지 대기 (중요!)
 80003b4:	2064      	movs	r0, #100	@ 0x64
 80003b6:	f000 fb8f 	bl	8000ad8 <delay_ms>
}
 80003ba:	bf00      	nop
 80003bc:	bd80      	pop	{r7, pc}
	...

080003c0 <ST7735_WriteCommand>:
void ST7735_WriteCommand(uint8_t cmd) {
 80003c0:	b580      	push	{r7, lr}
 80003c2:	b082      	sub	sp, #8
 80003c4:	af00      	add	r7, sp, #0
 80003c6:	4603      	mov	r3, r0
 80003c8:	71fb      	strb	r3, [r7, #7]
    A0_pin_reset(); // A0를 Low로 내려서 지금 보내는 건 '명령어'라고 알림
 80003ca:	f000 f8e5 	bl	8000598 <A0_pin_reset>
    CS_ON();
 80003ce:	f000 fc75 	bl	8000cbc <CS_ON>
    SPI1_DMA_transfer(&cmd, 1);
 80003d2:	1dfb      	adds	r3, r7, #7
 80003d4:	2101      	movs	r1, #1
 80003d6:	4618      	mov	r0, r3
 80003d8:	f000 fc26 	bl	8000c28 <SPI1_DMA_transfer>
   // SPI1_WriteByte_Polling(cmd);
    while (SPI1->SR & (1 << 15));
 80003dc:	bf00      	nop
 80003de:	4b06      	ldr	r3, [pc, #24]	@ (80003f8 <ST7735_WriteCommand+0x38>)
 80003e0:	689b      	ldr	r3, [r3, #8]
 80003e2:	f403 4300 	and.w	r3, r3, #32768	@ 0x8000
 80003e6:	2b00      	cmp	r3, #0
 80003e8:	d1f9      	bne.n	80003de <ST7735_WriteCommand+0x1e>
    CS_OFF();
 80003ea:	f000 fc73 	bl	8000cd4 <CS_OFF>
}
 80003ee:	bf00      	nop
 80003f0:	3708      	adds	r7, #8
 80003f2:	46bd      	mov	sp, r7
 80003f4:	bd80      	pop	{r7, pc}
 80003f6:	bf00      	nop
 80003f8:	40013000 	.word	0x40013000

080003fc <ST7735_WriteData>:

void ST7735_WriteData(uint8_t data) {
 80003fc:	b580      	push	{r7, lr}
 80003fe:	b082      	sub	sp, #8
 8000400:	af00      	add	r7, sp, #0
 8000402:	4603      	mov	r3, r0
 8000404:	71fb      	strb	r3, [r7, #7]
    A0_pin_set();   // A0를 High로 올려서 지금 보내는 건 '데이터'라고 알림
 8000406:	f000 f8bb 	bl	8000580 <A0_pin_set>
    CS_ON();
 800040a:	f000 fc57 	bl	8000cbc <CS_ON>
    SPI1_DMA_transfer(&data, 1);
 800040e:	1dfb      	adds	r3, r7, #7
 8000410:	2101      	movs	r1, #1
 8000412:	4618      	mov	r0, r3
 8000414:	f000 fc08 	bl	8000c28 <SPI1_DMA_transfer>
   // SPI1_WriteByte_Polling(data);
    while (SPI1->SR & (1 << 15)); // BSY 확인
 8000418:	bf00      	nop
 800041a:	4b06      	ldr	r3, [pc, #24]	@ (8000434 <ST7735_WriteData+0x38>)
 800041c:	689b      	ldr	r3, [r3, #8]
 800041e:	f403 4300 	and.w	r3, r3, #32768	@ 0x8000
 8000422:	2b00      	cmp	r3, #0
 8000424:	d1f9      	bne.n	800041a <ST7735_WriteData+0x1e>
    CS_OFF();
 8000426:	f000 fc55 	bl	8000cd4 <CS_OFF>
}
 800042a:	bf00      	nop
 800042c:	3708      	adds	r7, #8
 800042e:	46bd      	mov	sp, r7
 8000430:	bd80      	pop	{r7, pc}
 8000432:	bf00      	nop
 8000434:	40013000 	.word	0x40013000

08000438 <ST7735_WriteString>:
void ST7735_WriteString(uint16_t x, uint16_t y, const char* str, FontDef font, uint16_t color, uint16_t bgcolor) {
 8000438:	b082      	sub	sp, #8
 800043a:	b580      	push	{r7, lr}
 800043c:	b086      	sub	sp, #24
 800043e:	af04      	add	r7, sp, #16
 8000440:	603a      	str	r2, [r7, #0]
 8000442:	617b      	str	r3, [r7, #20]
 8000444:	4603      	mov	r3, r0
 8000446:	80fb      	strh	r3, [r7, #6]
 8000448:	460b      	mov	r3, r1
 800044a:	80bb      	strh	r3, [r7, #4]
    while(*str) {
 800044c:	e019      	b.n	8000482 <ST7735_WriteString+0x4a>
        // 화면 범위를 벗어나면 다음 줄로 넘기거나 중단하는 로직을 넣을 수 있습니다.
        if(x + font.width >= 128) break;
 800044e:	88fb      	ldrh	r3, [r7, #6]
 8000450:	7d3a      	ldrb	r2, [r7, #20]
 8000452:	4413      	add	r3, r2
 8000454:	2b7f      	cmp	r3, #127	@ 0x7f
 8000456:	dc19      	bgt.n	800048c <ST7735_WriteString+0x54>

        ST7735_DrawChar(x, y, *str, font, color, bgcolor);
 8000458:	683b      	ldr	r3, [r7, #0]
 800045a:	781a      	ldrb	r2, [r3, #0]
 800045c:	88b9      	ldrh	r1, [r7, #4]
 800045e:	88f8      	ldrh	r0, [r7, #6]
 8000460:	8c3b      	ldrh	r3, [r7, #32]
 8000462:	9302      	str	r3, [sp, #8]
 8000464:	8bbb      	ldrh	r3, [r7, #28]
 8000466:	9301      	str	r3, [sp, #4]
 8000468:	69bb      	ldr	r3, [r7, #24]
 800046a:	9300      	str	r3, [sp, #0]
 800046c:	697b      	ldr	r3, [r7, #20]
 800046e:	f000 f815 	bl	800049c <ST7735_DrawChar>
        x += font.width; // 다음 글자 위치로 이동
 8000472:	7d3b      	ldrb	r3, [r7, #20]
 8000474:	461a      	mov	r2, r3
 8000476:	88fb      	ldrh	r3, [r7, #6]
 8000478:	4413      	add	r3, r2
 800047a:	80fb      	strh	r3, [r7, #6]
        str++;
 800047c:	683b      	ldr	r3, [r7, #0]
 800047e:	3301      	adds	r3, #1
 8000480:	603b      	str	r3, [r7, #0]
    while(*str) {
 8000482:	683b      	ldr	r3, [r7, #0]
 8000484:	781b      	ldrb	r3, [r3, #0]
 8000486:	2b00      	cmp	r3, #0
 8000488:	d1e1      	bne.n	800044e <ST7735_WriteString+0x16>
    }
}
 800048a:	e000      	b.n	800048e <ST7735_WriteString+0x56>
        if(x + font.width >= 128) break;
 800048c:	bf00      	nop
}
 800048e:	bf00      	nop
 8000490:	3708      	adds	r7, #8
 8000492:	46bd      	mov	sp, r7
 8000494:	e8bd 4080 	ldmia.w	sp!, {r7, lr}
 8000498:	b002      	add	sp, #8
 800049a:	4770      	bx	lr

0800049c <ST7735_DrawChar>:
void ST7735_DrawChar(uint16_t x, uint16_t y, char ch, FontDef font, uint16_t color, uint16_t bgcolor) {
 800049c:	b082      	sub	sp, #8
 800049e:	b590      	push	{r4, r7, lr}
 80004a0:	b087      	sub	sp, #28
 80004a2:	af00      	add	r7, sp, #0
 80004a4:	62fb      	str	r3, [r7, #44]	@ 0x2c
 80004a6:	4603      	mov	r3, r0
 80004a8:	80fb      	strh	r3, [r7, #6]
 80004aa:	460b      	mov	r3, r1
 80004ac:	80bb      	strh	r3, [r7, #4]
 80004ae:	4613      	mov	r3, r2
 80004b0:	70fb      	strb	r3, [r7, #3]
    uint32_t i, b, j;

    // 1. 주소 창 설정 (글자 크기만큼)
    ST7735_SetAddressWindow(x, y, x + font.width - 1, y + font.height - 1);
 80004b2:	88fb      	ldrh	r3, [r7, #6]
 80004b4:	b2d8      	uxtb	r0, r3
 80004b6:	88bb      	ldrh	r3, [r7, #4]
 80004b8:	b2d9      	uxtb	r1, r3
 80004ba:	88fb      	ldrh	r3, [r7, #6]
 80004bc:	b2da      	uxtb	r2, r3
 80004be:	f897 302c 	ldrb.w	r3, [r7, #44]	@ 0x2c
 80004c2:	4413      	add	r3, r2
 80004c4:	b2db      	uxtb	r3, r3
 80004c6:	3b01      	subs	r3, #1
 80004c8:	b2dc      	uxtb	r4, r3
 80004ca:	88bb      	ldrh	r3, [r7, #4]
 80004cc:	b2da      	uxtb	r2, r3
 80004ce:	f897 302d 	ldrb.w	r3, [r7, #45]	@ 0x2d
 80004d2:	4413      	add	r3, r2
 80004d4:	b2db      	uxtb	r3, r3
 80004d6:	3b01      	subs	r3, #1
 80004d8:	b2db      	uxtb	r3, r3
 80004da:	4622      	mov	r2, r4
 80004dc:	f7ff fefe 	bl	80002dc <ST7735_SetAddressWindow>

    // 2. 폰트 데이터에서 해당 문자의 시작 위치 계산 (ASCII 32번 'Space'부터 시작함)
    for(i = 0; i < font.height; i++) {
 80004e0:	2300      	movs	r3, #0
 80004e2:	617b      	str	r3, [r7, #20]
 80004e4:	e03d      	b.n	8000562 <ST7735_DrawChar+0xc6>
        b = font.data[(ch - 32) * font.height + i];
 80004e6:	6b3a      	ldr	r2, [r7, #48]	@ 0x30
 80004e8:	78fb      	ldrb	r3, [r7, #3]
 80004ea:	3b20      	subs	r3, #32
 80004ec:	f897 102d 	ldrb.w	r1, [r7, #45]	@ 0x2d
 80004f0:	fb01 f303 	mul.w	r3, r1, r3
 80004f4:	4619      	mov	r1, r3
 80004f6:	697b      	ldr	r3, [r7, #20]
 80004f8:	440b      	add	r3, r1
 80004fa:	005b      	lsls	r3, r3, #1
 80004fc:	4413      	add	r3, r2
 80004fe:	881b      	ldrh	r3, [r3, #0]
 8000500:	60fb      	str	r3, [r7, #12]
        for(j = 0; j < font.width; j++) {
 8000502:	2300      	movs	r3, #0
 8000504:	613b      	str	r3, [r7, #16]
 8000506:	e023      	b.n	8000550 <ST7735_DrawChar+0xb4>
            // 비트가 1이면 글자색, 0이면 배경색 (MSB부터 검사)
            if((b << j) & 0x8000)  {
 8000508:	68fa      	ldr	r2, [r7, #12]
 800050a:	693b      	ldr	r3, [r7, #16]
 800050c:	fa02 f303 	lsl.w	r3, r2, r3
 8000510:	f403 4300 	and.w	r3, r3, #32768	@ 0x8000
 8000514:	2b00      	cmp	r3, #0
 8000516:	d00c      	beq.n	8000532 <ST7735_DrawChar+0x96>
                ST7735_WriteData(color >> 8);
 8000518:	8ebb      	ldrh	r3, [r7, #52]	@ 0x34
 800051a:	0a1b      	lsrs	r3, r3, #8
 800051c:	b29b      	uxth	r3, r3
 800051e:	b2db      	uxtb	r3, r3
 8000520:	4618      	mov	r0, r3
 8000522:	f7ff ff6b 	bl	80003fc <ST7735_WriteData>
                ST7735_WriteData(color & 0xFF);
 8000526:	8ebb      	ldrh	r3, [r7, #52]	@ 0x34
 8000528:	b2db      	uxtb	r3, r3
 800052a:	4618      	mov	r0, r3
 800052c:	f7ff ff66 	bl	80003fc <ST7735_WriteData>
 8000530:	e00b      	b.n	800054a <ST7735_DrawChar+0xae>
            } else {
                ST7735_WriteData(bgcolor >> 8);
 8000532:	8f3b      	ldrh	r3, [r7, #56]	@ 0x38
 8000534:	0a1b      	lsrs	r3, r3, #8
 8000536:	b29b      	uxth	r3, r3
 8000538:	b2db      	uxtb	r3, r3
 800053a:	4618      	mov	r0, r3
 800053c:	f7ff ff5e 	bl	80003fc <ST7735_WriteData>
                ST7735_WriteData(bgcolor & 0xFF);
 8000540:	8f3b      	ldrh	r3, [r7, #56]	@ 0x38
 8000542:	b2db      	uxtb	r3, r3
 8000544:	4618      	mov	r0, r3
 8000546:	f7ff ff59 	bl	80003fc <ST7735_WriteData>
        for(j = 0; j < font.width; j++) {
 800054a:	693b      	ldr	r3, [r7, #16]
 800054c:	3301      	adds	r3, #1
 800054e:	613b      	str	r3, [r7, #16]
 8000550:	f897 302c 	ldrb.w	r3, [r7, #44]	@ 0x2c
 8000554:	461a      	mov	r2, r3
 8000556:	693b      	ldr	r3, [r7, #16]
 8000558:	4293      	cmp	r3, r2
 800055a:	d3d5      	bcc.n	8000508 <ST7735_DrawChar+0x6c>
    for(i = 0; i < font.height; i++) {
 800055c:	697b      	ldr	r3, [r7, #20]
 800055e:	3301      	adds	r3, #1
 8000560:	617b      	str	r3, [r7, #20]
 8000562:	f897 302d 	ldrb.w	r3, [r7, #45]	@ 0x2d
 8000566:	461a      	mov	r2, r3
 8000568:	697b      	ldr	r3, [r7, #20]
 800056a:	4293      	cmp	r3, r2
 800056c:	d3bb      	bcc.n	80004e6 <ST7735_DrawChar+0x4a>
            }
        }
    }
}
 800056e:	bf00      	nop
 8000570:	bf00      	nop
 8000572:	371c      	adds	r7, #28
 8000574:	46bd      	mov	sp, r7
 8000576:	e8bd 4090 	ldmia.w	sp!, {r4, r7, lr}
 800057a:	b002      	add	sp, #8
 800057c:	4770      	bx	lr
	...

08000580 <A0_pin_set>:
void A0_pin_set(){
 8000580:	b580      	push	{r7, lr}
 8000582:	af00      	add	r7, sp, #0
	GPIO_Write_Pin(GPIOF, 12, 1);
 8000584:	2201      	movs	r2, #1
 8000586:	210c      	movs	r1, #12
 8000588:	4802      	ldr	r0, [pc, #8]	@ (8000594 <A0_pin_set+0x14>)
 800058a:	f000 f84c 	bl	8000626 <GPIO_Write_Pin>
}
 800058e:	bf00      	nop
 8000590:	bd80      	pop	{r7, pc}
 8000592:	bf00      	nop
 8000594:	40021400 	.word	0x40021400

08000598 <A0_pin_reset>:
void A0_pin_reset(){
 8000598:	b580      	push	{r7, lr}
 800059a:	af00      	add	r7, sp, #0
	GPIO_Write_Pin(GPIOF, 12, 0);
 800059c:	2200      	movs	r2, #0
 800059e:	210c      	movs	r1, #12
 80005a0:	4802      	ldr	r0, [pc, #8]	@ (80005ac <A0_pin_reset+0x14>)
 80005a2:	f000 f840 	bl	8000626 <GPIO_Write_Pin>
}
 80005a6:	bf00      	nop
 80005a8:	bd80      	pop	{r7, pc}
 80005aa:	bf00      	nop
 80005ac:	40021400 	.word	0x40021400

080005b0 <RESET_pin_set>:
void RESET_pin_set(){
 80005b0:	b580      	push	{r7, lr}
 80005b2:	af00      	add	r7, sp, #0
	GPIO_Write_Pin(GPIOF, 13, 1);
 80005b4:	2201      	movs	r2, #1
 80005b6:	210d      	movs	r1, #13
 80005b8:	4802      	ldr	r0, [pc, #8]	@ (80005c4 <RESET_pin_set+0x14>)
 80005ba:	f000 f834 	bl	8000626 <GPIO_Write_Pin>
}
 80005be:	bf00      	nop
 80005c0:	bd80      	pop	{r7, pc}
 80005c2:	bf00      	nop
 80005c4:	40021400 	.word	0x40021400

080005c8 <RESET_pin_reset>:
void RESET_pin_reset(){
 80005c8:	b580      	push	{r7, lr}
 80005ca:	af00      	add	r7, sp, #0
	GPIO_Write_Pin(GPIOF, 13, 0);
 80005cc:	2200      	movs	r2, #0
 80005ce:	210d      	movs	r1, #13
 80005d0:	4802      	ldr	r0, [pc, #8]	@ (80005dc <RESET_pin_reset+0x14>)
 80005d2:	f000 f828 	bl	8000626 <GPIO_Write_Pin>
}
 80005d6:	bf00      	nop
 80005d8:	bd80      	pop	{r7, pc}
 80005da:	bf00      	nop
 80005dc:	40021400 	.word	0x40021400

080005e0 <GPIO_pin_Mode>:
#include "gpio.h"

void GPIO_pin_Mode(Gpio_Struct* GPIOx, uint8_t pin, uint8_t mode){
 80005e0:	b480      	push	{r7}
 80005e2:	b083      	sub	sp, #12
 80005e4:	af00      	add	r7, sp, #0
 80005e6:	6078      	str	r0, [r7, #4]
 80005e8:	460b      	mov	r3, r1
 80005ea:	70fb      	strb	r3, [r7, #3]
 80005ec:	4613      	mov	r3, r2
 80005ee:	70bb      	strb	r3, [r7, #2]
	GPIOx->MODER &= ~(3UL << (pin * 2)); // 초기화
 80005f0:	687b      	ldr	r3, [r7, #4]
 80005f2:	681a      	ldr	r2, [r3, #0]
 80005f4:	78fb      	ldrb	r3, [r7, #3]
 80005f6:	005b      	lsls	r3, r3, #1
 80005f8:	2103      	movs	r1, #3
 80005fa:	fa01 f303 	lsl.w	r3, r1, r3
 80005fe:	43db      	mvns	r3, r3
 8000600:	401a      	ands	r2, r3
 8000602:	687b      	ldr	r3, [r7, #4]
 8000604:	601a      	str	r2, [r3, #0]
	GPIOx->MODER |= (mode<<(pin*2));
 8000606:	687b      	ldr	r3, [r7, #4]
 8000608:	681b      	ldr	r3, [r3, #0]
 800060a:	78b9      	ldrb	r1, [r7, #2]
 800060c:	78fa      	ldrb	r2, [r7, #3]
 800060e:	0052      	lsls	r2, r2, #1
 8000610:	fa01 f202 	lsl.w	r2, r1, r2
 8000614:	431a      	orrs	r2, r3
 8000616:	687b      	ldr	r3, [r7, #4]
 8000618:	601a      	str	r2, [r3, #0]
}
 800061a:	bf00      	nop
 800061c:	370c      	adds	r7, #12
 800061e:	46bd      	mov	sp, r7
 8000620:	f85d 7b04 	ldr.w	r7, [sp], #4
 8000624:	4770      	bx	lr

08000626 <GPIO_Write_Pin>:

void GPIO_Write_Pin(Gpio_Struct* GPIOx, uint8_t pin, uint8_t logic){
 8000626:	b480      	push	{r7}
 8000628:	b083      	sub	sp, #12
 800062a:	af00      	add	r7, sp, #0
 800062c:	6078      	str	r0, [r7, #4]
 800062e:	460b      	mov	r3, r1
 8000630:	70fb      	strb	r3, [r7, #3]
 8000632:	4613      	mov	r3, r2
 8000634:	70bb      	strb	r3, [r7, #2]
	if(logic) GPIOx->BSRR = (1 << pin);
 8000636:	78bb      	ldrb	r3, [r7, #2]
 8000638:	2b00      	cmp	r3, #0
 800063a:	d007      	beq.n	800064c <GPIO_Write_Pin+0x26>
 800063c:	78fb      	ldrb	r3, [r7, #3]
 800063e:	2201      	movs	r2, #1
 8000640:	fa02 f303 	lsl.w	r3, r2, r3
 8000644:	461a      	mov	r2, r3
 8000646:	687b      	ldr	r3, [r7, #4]
 8000648:	619a      	str	r2, [r3, #24]
	else GPIOx->BSRR = (1 << (pin+16));
}
 800064a:	e007      	b.n	800065c <GPIO_Write_Pin+0x36>
	else GPIOx->BSRR = (1 << (pin+16));
 800064c:	78fb      	ldrb	r3, [r7, #3]
 800064e:	3310      	adds	r3, #16
 8000650:	2201      	movs	r2, #1
 8000652:	fa02 f303 	lsl.w	r3, r2, r3
 8000656:	461a      	mov	r2, r3
 8000658:	687b      	ldr	r3, [r7, #4]
 800065a:	619a      	str	r2, [r3, #24]
}
 800065c:	bf00      	nop
 800065e:	370c      	adds	r7, #12
 8000660:	46bd      	mov	sp, r7
 8000662:	f85d 7b04 	ldr.w	r7, [sp], #4
 8000666:	4770      	bx	lr

08000668 <GPIO_Clock_Enable>:

uint8_t GPIO_Read_Pin(Gpio_Struct* GPIOx, uint8_t pin){
	return ((GPIOx->IDR & (1 << pin)) ? 1 : 0);
}
void GPIO_Clock_Enable(Gpio_Struct* GPIOx) {
 8000668:	b480      	push	{r7}
 800066a:	b085      	sub	sp, #20
 800066c:	af00      	add	r7, sp, #0
 800066e:	6078      	str	r0, [r7, #4]
    if      (GPIOx == GPIOA) RCC->AHB1ENR |= (1 << 0);
 8000670:	687b      	ldr	r3, [r7, #4]
 8000672:	4a40      	ldr	r2, [pc, #256]	@ (8000774 <GPIO_Clock_Enable+0x10c>)
 8000674:	4293      	cmp	r3, r2
 8000676:	d106      	bne.n	8000686 <GPIO_Clock_Enable+0x1e>
 8000678:	4b3f      	ldr	r3, [pc, #252]	@ (8000778 <GPIO_Clock_Enable+0x110>)
 800067a:	6b1b      	ldr	r3, [r3, #48]	@ 0x30
 800067c:	4a3e      	ldr	r2, [pc, #248]	@ (8000778 <GPIO_Clock_Enable+0x110>)
 800067e:	f043 0301 	orr.w	r3, r3, #1
 8000682:	6313      	str	r3, [r2, #48]	@ 0x30
 8000684:	e06c      	b.n	8000760 <GPIO_Clock_Enable+0xf8>
    else if (GPIOx == GPIOB) RCC->AHB1ENR |= (1 << 1);
 8000686:	687b      	ldr	r3, [r7, #4]
 8000688:	4a3c      	ldr	r2, [pc, #240]	@ (800077c <GPIO_Clock_Enable+0x114>)
 800068a:	4293      	cmp	r3, r2
 800068c:	d106      	bne.n	800069c <GPIO_Clock_Enable+0x34>
 800068e:	4b3a      	ldr	r3, [pc, #232]	@ (8000778 <GPIO_Clock_Enable+0x110>)
 8000690:	6b1b      	ldr	r3, [r3, #48]	@ 0x30
 8000692:	4a39      	ldr	r2, [pc, #228]	@ (8000778 <GPIO_Clock_Enable+0x110>)
 8000694:	f043 0302 	orr.w	r3, r3, #2
 8000698:	6313      	str	r3, [r2, #48]	@ 0x30
 800069a:	e061      	b.n	8000760 <GPIO_Clock_Enable+0xf8>
    else if (GPIOx == GPIOC) RCC->AHB1ENR |= (1 << 2);
 800069c:	687b      	ldr	r3, [r7, #4]
 800069e:	4a38      	ldr	r2, [pc, #224]	@ (8000780 <GPIO_Clock_Enable+0x118>)
 80006a0:	4293      	cmp	r3, r2
 80006a2:	d106      	bne.n	80006b2 <GPIO_Clock_Enable+0x4a>
 80006a4:	4b34      	ldr	r3, [pc, #208]	@ (8000778 <GPIO_Clock_Enable+0x110>)
 80006a6:	6b1b      	ldr	r3, [r3, #48]	@ 0x30
 80006a8:	4a33      	ldr	r2, [pc, #204]	@ (8000778 <GPIO_Clock_Enable+0x110>)
 80006aa:	f043 0304 	orr.w	r3, r3, #4
 80006ae:	6313      	str	r3, [r2, #48]	@ 0x30
 80006b0:	e056      	b.n	8000760 <GPIO_Clock_Enable+0xf8>
    else if (GPIOx == GPIOD) RCC->AHB1ENR |= (1 << 3);
 80006b2:	687b      	ldr	r3, [r7, #4]
 80006b4:	4a33      	ldr	r2, [pc, #204]	@ (8000784 <GPIO_Clock_Enable+0x11c>)
 80006b6:	4293      	cmp	r3, r2
 80006b8:	d106      	bne.n	80006c8 <GPIO_Clock_Enable+0x60>
 80006ba:	4b2f      	ldr	r3, [pc, #188]	@ (8000778 <GPIO_Clock_Enable+0x110>)
 80006bc:	6b1b      	ldr	r3, [r3, #48]	@ 0x30
 80006be:	4a2e      	ldr	r2, [pc, #184]	@ (8000778 <GPIO_Clock_Enable+0x110>)
 80006c0:	f043 0308 	orr.w	r3, r3, #8
 80006c4:	6313      	str	r3, [r2, #48]	@ 0x30
 80006c6:	e04b      	b.n	8000760 <GPIO_Clock_Enable+0xf8>
    else if (GPIOx == GPIOE) RCC->AHB1ENR |= (1 << 4);
 80006c8:	687b      	ldr	r3, [r7, #4]
 80006ca:	4a2f      	ldr	r2, [pc, #188]	@ (8000788 <GPIO_Clock_Enable+0x120>)
 80006cc:	4293      	cmp	r3, r2
 80006ce:	d106      	bne.n	80006de <GPIO_Clock_Enable+0x76>
 80006d0:	4b29      	ldr	r3, [pc, #164]	@ (8000778 <GPIO_Clock_Enable+0x110>)
 80006d2:	6b1b      	ldr	r3, [r3, #48]	@ 0x30
 80006d4:	4a28      	ldr	r2, [pc, #160]	@ (8000778 <GPIO_Clock_Enable+0x110>)
 80006d6:	f043 0310 	orr.w	r3, r3, #16
 80006da:	6313      	str	r3, [r2, #48]	@ 0x30
 80006dc:	e040      	b.n	8000760 <GPIO_Clock_Enable+0xf8>
    else if (GPIOx == GPIOF) RCC->AHB1ENR |= (1 << 5);
 80006de:	687b      	ldr	r3, [r7, #4]
 80006e0:	4a2a      	ldr	r2, [pc, #168]	@ (800078c <GPIO_Clock_Enable+0x124>)
 80006e2:	4293      	cmp	r3, r2
 80006e4:	d106      	bne.n	80006f4 <GPIO_Clock_Enable+0x8c>
 80006e6:	4b24      	ldr	r3, [pc, #144]	@ (8000778 <GPIO_Clock_Enable+0x110>)
 80006e8:	6b1b      	ldr	r3, [r3, #48]	@ 0x30
 80006ea:	4a23      	ldr	r2, [pc, #140]	@ (8000778 <GPIO_Clock_Enable+0x110>)
 80006ec:	f043 0320 	orr.w	r3, r3, #32
 80006f0:	6313      	str	r3, [r2, #48]	@ 0x30
 80006f2:	e035      	b.n	8000760 <GPIO_Clock_Enable+0xf8>
    else if (GPIOx == GPIOG) RCC->AHB1ENR |= (1 << 6);
 80006f4:	687b      	ldr	r3, [r7, #4]
 80006f6:	4a26      	ldr	r2, [pc, #152]	@ (8000790 <GPIO_Clock_Enable+0x128>)
 80006f8:	4293      	cmp	r3, r2
 80006fa:	d106      	bne.n	800070a <GPIO_Clock_Enable+0xa2>
 80006fc:	4b1e      	ldr	r3, [pc, #120]	@ (8000778 <GPIO_Clock_Enable+0x110>)
 80006fe:	6b1b      	ldr	r3, [r3, #48]	@ 0x30
 8000700:	4a1d      	ldr	r2, [pc, #116]	@ (8000778 <GPIO_Clock_Enable+0x110>)
 8000702:	f043 0340 	orr.w	r3, r3, #64	@ 0x40
 8000706:	6313      	str	r3, [r2, #48]	@ 0x30
 8000708:	e02a      	b.n	8000760 <GPIO_Clock_Enable+0xf8>
    else if (GPIOx == GPIOH) RCC->AHB1ENR |= (1 << 7);
 800070a:	687b      	ldr	r3, [r7, #4]
 800070c:	4a21      	ldr	r2, [pc, #132]	@ (8000794 <GPIO_Clock_Enable+0x12c>)
 800070e:	4293      	cmp	r3, r2
 8000710:	d106      	bne.n	8000720 <GPIO_Clock_Enable+0xb8>
 8000712:	4b19      	ldr	r3, [pc, #100]	@ (8000778 <GPIO_Clock_Enable+0x110>)
 8000714:	6b1b      	ldr	r3, [r3, #48]	@ 0x30
 8000716:	4a18      	ldr	r2, [pc, #96]	@ (8000778 <GPIO_Clock_Enable+0x110>)
 8000718:	f043 0380 	orr.w	r3, r3, #128	@ 0x80
 800071c:	6313      	str	r3, [r2, #48]	@ 0x30
 800071e:	e01f      	b.n	8000760 <GPIO_Clock_Enable+0xf8>
    else if (GPIOx == GPIOI) RCC->AHB1ENR |= (1 << 8);
 8000720:	687b      	ldr	r3, [r7, #4]
 8000722:	4a1d      	ldr	r2, [pc, #116]	@ (8000798 <GPIO_Clock_Enable+0x130>)
 8000724:	4293      	cmp	r3, r2
 8000726:	d106      	bne.n	8000736 <GPIO_Clock_Enable+0xce>
 8000728:	4b13      	ldr	r3, [pc, #76]	@ (8000778 <GPIO_Clock_Enable+0x110>)
 800072a:	6b1b      	ldr	r3, [r3, #48]	@ 0x30
 800072c:	4a12      	ldr	r2, [pc, #72]	@ (8000778 <GPIO_Clock_Enable+0x110>)
 800072e:	f443 7380 	orr.w	r3, r3, #256	@ 0x100
 8000732:	6313      	str	r3, [r2, #48]	@ 0x30
 8000734:	e014      	b.n	8000760 <GPIO_Clock_Enable+0xf8>
    else if (GPIOx == GPIOJ) RCC->AHB1ENR |= (1 << 9);
 8000736:	687b      	ldr	r3, [r7, #4]
 8000738:	4a18      	ldr	r2, [pc, #96]	@ (800079c <GPIO_Clock_Enable+0x134>)
 800073a:	4293      	cmp	r3, r2
 800073c:	d106      	bne.n	800074c <GPIO_Clock_Enable+0xe4>
 800073e:	4b0e      	ldr	r3, [pc, #56]	@ (8000778 <GPIO_Clock_Enable+0x110>)
 8000740:	6b1b      	ldr	r3, [r3, #48]	@ 0x30
 8000742:	4a0d      	ldr	r2, [pc, #52]	@ (8000778 <GPIO_Clock_Enable+0x110>)
 8000744:	f443 7300 	orr.w	r3, r3, #512	@ 0x200
 8000748:	6313      	str	r3, [r2, #48]	@ 0x30
 800074a:	e009      	b.n	8000760 <GPIO_Clock_Enable+0xf8>
    else if (GPIOx == GPIOK) RCC->AHB1ENR |= (1 << 10);
 800074c:	687b      	ldr	r3, [r7, #4]
 800074e:	4a14      	ldr	r2, [pc, #80]	@ (80007a0 <GPIO_Clock_Enable+0x138>)
 8000750:	4293      	cmp	r3, r2
 8000752:	d105      	bne.n	8000760 <GPIO_Clock_Enable+0xf8>
 8000754:	4b08      	ldr	r3, [pc, #32]	@ (8000778 <GPIO_Clock_Enable+0x110>)
 8000756:	6b1b      	ldr	r3, [r3, #48]	@ 0x30
 8000758:	4a07      	ldr	r2, [pc, #28]	@ (8000778 <GPIO_Clock_Enable+0x110>)
 800075a:	f443 6380 	orr.w	r3, r3, #1024	@ 0x400
 800075e:	6313      	str	r3, [r2, #48]	@ 0x30

    volatile uint32_t dummy = RCC->AHB1ENR;
 8000760:	4b05      	ldr	r3, [pc, #20]	@ (8000778 <GPIO_Clock_Enable+0x110>)
 8000762:	6b1b      	ldr	r3, [r3, #48]	@ 0x30
 8000764:	60fb      	str	r3, [r7, #12]
    (void)dummy;
 8000766:	68fb      	ldr	r3, [r7, #12]
}
 8000768:	bf00      	nop
 800076a:	3714      	adds	r7, #20
 800076c:	46bd      	mov	sp, r7
 800076e:	f85d 7b04 	ldr.w	r7, [sp], #4
 8000772:	4770      	bx	lr
 8000774:	40020000 	.word	0x40020000
 8000778:	40023800 	.word	0x40023800
 800077c:	40020400 	.word	0x40020400
 8000780:	40020800 	.word	0x40020800
 8000784:	40020c00 	.word	0x40020c00
 8000788:	40021000 	.word	0x40021000
 800078c:	40021400 	.word	0x40021400
 8000790:	40021800 	.word	0x40021800
 8000794:	40021c00 	.word	0x40021c00
 8000798:	40022000 	.word	0x40022000
 800079c:	40022400 	.word	0x40022400
 80007a0:	40022800 	.word	0x40022800

080007a4 <GPIO_Speed_Set>:

void GPIO_Speed_Set(Gpio_Struct* GPIOx, uint8_t pin, uint8_t speed){
 80007a4:	b480      	push	{r7}
 80007a6:	b083      	sub	sp, #12
 80007a8:	af00      	add	r7, sp, #0
 80007aa:	6078      	str	r0, [r7, #4]
 80007ac:	460b      	mov	r3, r1
 80007ae:	70fb      	strb	r3, [r7, #3]
 80007b0:	4613      	mov	r3, r2
 80007b2:	70bb      	strb	r3, [r7, #2]
	GPIOx->OSPEEDR &= ~(3UL << (pin * 2));
 80007b4:	687b      	ldr	r3, [r7, #4]
 80007b6:	689a      	ldr	r2, [r3, #8]
 80007b8:	78fb      	ldrb	r3, [r7, #3]
 80007ba:	005b      	lsls	r3, r3, #1
 80007bc:	2103      	movs	r1, #3
 80007be:	fa01 f303 	lsl.w	r3, r1, r3
 80007c2:	43db      	mvns	r3, r3
 80007c4:	401a      	ands	r2, r3
 80007c6:	687b      	ldr	r3, [r7, #4]
 80007c8:	609a      	str	r2, [r3, #8]
	GPIOx->OSPEEDR |= (speed<<(pin*2));
 80007ca:	687b      	ldr	r3, [r7, #4]
 80007cc:	689b      	ldr	r3, [r3, #8]
 80007ce:	78b9      	ldrb	r1, [r7, #2]
 80007d0:	78fa      	ldrb	r2, [r7, #3]
 80007d2:	0052      	lsls	r2, r2, #1
 80007d4:	fa01 f202 	lsl.w	r2, r1, r2
 80007d8:	431a      	orrs	r2, r3
 80007da:	687b      	ldr	r3, [r7, #4]
 80007dc:	609a      	str	r2, [r3, #8]
}
 80007de:	bf00      	nop
 80007e0:	370c      	adds	r7, #12
 80007e2:	46bd      	mov	sp, r7
 80007e4:	f85d 7b04 	ldr.w	r7, [sp], #4
 80007e8:	4770      	bx	lr
	...

080007ec <PWM_TIM5_CH1_Init>:
#include <gpwm.h>
#include "gpio.h"

//PA0
void PWM_TIM5_CH1_Init(uint32_t freq){
 80007ec:	b480      	push	{r7}
 80007ee:	b083      	sub	sp, #12
 80007f0:	af00      	add	r7, sp, #0
 80007f2:	6078      	str	r0, [r7, #4]
	RCC->AHB1ENR |= (1<<0);
 80007f4:	4b30      	ldr	r3, [pc, #192]	@ (80008b8 <PWM_TIM5_CH1_Init+0xcc>)
 80007f6:	6b1b      	ldr	r3, [r3, #48]	@ 0x30
 80007f8:	4a2f      	ldr	r2, [pc, #188]	@ (80008b8 <PWM_TIM5_CH1_Init+0xcc>)
 80007fa:	f043 0301 	orr.w	r3, r3, #1
 80007fe:	6313      	str	r3, [r2, #48]	@ 0x30
	RCC->APB1ENR |= (1<<3);
 8000800:	4b2d      	ldr	r3, [pc, #180]	@ (80008b8 <PWM_TIM5_CH1_Init+0xcc>)
 8000802:	6c1b      	ldr	r3, [r3, #64]	@ 0x40
 8000804:	4a2c      	ldr	r2, [pc, #176]	@ (80008b8 <PWM_TIM5_CH1_Init+0xcc>)
 8000806:	f043 0308 	orr.w	r3, r3, #8
 800080a:	6413      	str	r3, [r2, #64]	@ 0x40

	GPIOA->MODER &= ~(3<<(0*2));
 800080c:	4b2b      	ldr	r3, [pc, #172]	@ (80008bc <PWM_TIM5_CH1_Init+0xd0>)
 800080e:	681b      	ldr	r3, [r3, #0]
 8000810:	4a2a      	ldr	r2, [pc, #168]	@ (80008bc <PWM_TIM5_CH1_Init+0xd0>)
 8000812:	f023 0303 	bic.w	r3, r3, #3
 8000816:	6013      	str	r3, [r2, #0]
	GPIOA->MODER |= (2<<(0*2));
 8000818:	4b28      	ldr	r3, [pc, #160]	@ (80008bc <PWM_TIM5_CH1_Init+0xd0>)
 800081a:	681b      	ldr	r3, [r3, #0]
 800081c:	4a27      	ldr	r2, [pc, #156]	@ (80008bc <PWM_TIM5_CH1_Init+0xd0>)
 800081e:	f043 0302 	orr.w	r3, r3, #2
 8000822:	6013      	str	r3, [r2, #0]

	GPIOA->AFRL &= ~(0xF<<(0*4));
 8000824:	4b25      	ldr	r3, [pc, #148]	@ (80008bc <PWM_TIM5_CH1_Init+0xd0>)
 8000826:	6a1b      	ldr	r3, [r3, #32]
 8000828:	4a24      	ldr	r2, [pc, #144]	@ (80008bc <PWM_TIM5_CH1_Init+0xd0>)
 800082a:	f023 030f 	bic.w	r3, r3, #15
 800082e:	6213      	str	r3, [r2, #32]
	GPIOA->AFRL |=  (0x02 << (0 * 4));
 8000830:	4b22      	ldr	r3, [pc, #136]	@ (80008bc <PWM_TIM5_CH1_Init+0xd0>)
 8000832:	6a1b      	ldr	r3, [r3, #32]
 8000834:	4a21      	ldr	r2, [pc, #132]	@ (80008bc <PWM_TIM5_CH1_Init+0xd0>)
 8000836:	f043 0302 	orr.w	r3, r3, #2
 800083a:	6213      	str	r3, [r2, #32]
	GPIOA->OSPEEDR |= (3<<(0*2));
 800083c:	4b1f      	ldr	r3, [pc, #124]	@ (80008bc <PWM_TIM5_CH1_Init+0xd0>)
 800083e:	689b      	ldr	r3, [r3, #8]
 8000840:	4a1e      	ldr	r2, [pc, #120]	@ (80008bc <PWM_TIM5_CH1_Init+0xd0>)
 8000842:	f043 0303 	orr.w	r3, r3, #3
 8000846:	6093      	str	r3, [r2, #8]

	TIM5->PSC = 0; //분주비0 108Mhz
 8000848:	4b1d      	ldr	r3, [pc, #116]	@ (80008c0 <PWM_TIM5_CH1_Init+0xd4>)
 800084a:	2200      	movs	r2, #0
 800084c:	629a      	str	r2, [r3, #40]	@ 0x28
	TIM5->ARR = (108000000 / freq) - 1;
 800084e:	4a1d      	ldr	r2, [pc, #116]	@ (80008c4 <PWM_TIM5_CH1_Init+0xd8>)
 8000850:	687b      	ldr	r3, [r7, #4]
 8000852:	fbb2 f3f3 	udiv	r3, r2, r3
 8000856:	4a1a      	ldr	r2, [pc, #104]	@ (80008c0 <PWM_TIM5_CH1_Init+0xd4>)
 8000858:	3b01      	subs	r3, #1
 800085a:	62d3      	str	r3, [r2, #44]	@ 0x2c

	TIM5->CCMR1 &= ~(7 << 4); // 기존 4,5,6번 비트 청소
 800085c:	4b18      	ldr	r3, [pc, #96]	@ (80008c0 <PWM_TIM5_CH1_Init+0xd4>)
 800085e:	699b      	ldr	r3, [r3, #24]
 8000860:	4a17      	ldr	r2, [pc, #92]	@ (80008c0 <PWM_TIM5_CH1_Init+0xd4>)
 8000862:	f023 0370 	bic.w	r3, r3, #112	@ 0x70
 8000866:	6193      	str	r3, [r2, #24]
	TIM5->CCMR1 |= (6 << 4);  // PWM Mode 1
 8000868:	4b15      	ldr	r3, [pc, #84]	@ (80008c0 <PWM_TIM5_CH1_Init+0xd4>)
 800086a:	699b      	ldr	r3, [r3, #24]
 800086c:	4a14      	ldr	r2, [pc, #80]	@ (80008c0 <PWM_TIM5_CH1_Init+0xd4>)
 800086e:	f043 0360 	orr.w	r3, r3, #96	@ 0x60
 8000872:	6193      	str	r3, [r2, #24]
	TIM5->CCMR1 |= (1<<3); //preload
 8000874:	4b12      	ldr	r3, [pc, #72]	@ (80008c0 <PWM_TIM5_CH1_Init+0xd4>)
 8000876:	699b      	ldr	r3, [r3, #24]
 8000878:	4a11      	ldr	r2, [pc, #68]	@ (80008c0 <PWM_TIM5_CH1_Init+0xd4>)
 800087a:	f043 0308 	orr.w	r3, r3, #8
 800087e:	6193      	str	r3, [r2, #24]

	TIM5->CCER |= (1<<0);
 8000880:	4b0f      	ldr	r3, [pc, #60]	@ (80008c0 <PWM_TIM5_CH1_Init+0xd4>)
 8000882:	6a1b      	ldr	r3, [r3, #32]
 8000884:	4a0e      	ldr	r2, [pc, #56]	@ (80008c0 <PWM_TIM5_CH1_Init+0xd4>)
 8000886:	f043 0301 	orr.w	r3, r3, #1
 800088a:	6213      	str	r3, [r2, #32]

	TIM5->CR1 |= (1<<0);
 800088c:	4b0c      	ldr	r3, [pc, #48]	@ (80008c0 <PWM_TIM5_CH1_Init+0xd4>)
 800088e:	681b      	ldr	r3, [r3, #0]
 8000890:	4a0b      	ldr	r2, [pc, #44]	@ (80008c0 <PWM_TIM5_CH1_Init+0xd4>)
 8000892:	f043 0301 	orr.w	r3, r3, #1
 8000896:	6013      	str	r3, [r2, #0]
	TIM5->CR1 |= (1<<7);
 8000898:	4b09      	ldr	r3, [pc, #36]	@ (80008c0 <PWM_TIM5_CH1_Init+0xd4>)
 800089a:	681b      	ldr	r3, [r3, #0]
 800089c:	4a08      	ldr	r2, [pc, #32]	@ (80008c0 <PWM_TIM5_CH1_Init+0xd4>)
 800089e:	f043 0380 	orr.w	r3, r3, #128	@ 0x80
 80008a2:	6013      	str	r3, [r2, #0]

	TIM5->CCR1 = 0; //초기듀티 0;
 80008a4:	4b06      	ldr	r3, [pc, #24]	@ (80008c0 <PWM_TIM5_CH1_Init+0xd4>)
 80008a6:	2200      	movs	r2, #0
 80008a8:	635a      	str	r2, [r3, #52]	@ 0x34

}
 80008aa:	bf00      	nop
 80008ac:	370c      	adds	r7, #12
 80008ae:	46bd      	mov	sp, r7
 80008b0:	f85d 7b04 	ldr.w	r7, [sp], #4
 80008b4:	4770      	bx	lr
 80008b6:	bf00      	nop
 80008b8:	40023800 	.word	0x40023800
 80008bc:	40020000 	.word	0x40020000
 80008c0:	40000c00 	.word	0x40000c00
 80008c4:	066ff300 	.word	0x066ff300

080008c8 <PWM_TIM5_CH1_Setduty>:

void PWM_TIM5_CH1_Setduty(float duty_per){
 80008c8:	b480      	push	{r7}
 80008ca:	b083      	sub	sp, #12
 80008cc:	af00      	add	r7, sp, #0
 80008ce:	ed87 0a01 	vstr	s0, [r7, #4]
	if(duty_per>100) duty_per = 100;
 80008d2:	edd7 7a01 	vldr	s15, [r7, #4]
 80008d6:	ed9f 7a16 	vldr	s14, [pc, #88]	@ 8000930 <PWM_TIM5_CH1_Setduty+0x68>
 80008da:	eef4 7ac7 	vcmpe.f32	s15, s14
 80008de:	eef1 fa10 	vmrs	APSR_nzcv, fpscr
 80008e2:	dd01      	ble.n	80008e8 <PWM_TIM5_CH1_Setduty+0x20>
 80008e4:	4b13      	ldr	r3, [pc, #76]	@ (8000934 <PWM_TIM5_CH1_Setduty+0x6c>)
 80008e6:	607b      	str	r3, [r7, #4]
	if(duty_per<0) duty_per = 0;
 80008e8:	edd7 7a01 	vldr	s15, [r7, #4]
 80008ec:	eef5 7ac0 	vcmpe.f32	s15, #0.0
 80008f0:	eef1 fa10 	vmrs	APSR_nzcv, fpscr
 80008f4:	d502      	bpl.n	80008fc <PWM_TIM5_CH1_Setduty+0x34>
 80008f6:	f04f 0300 	mov.w	r3, #0
 80008fa:	607b      	str	r3, [r7, #4]
	TIM5->CCR1 = (TIM5->ARR)*duty_per/100;
 80008fc:	4b0e      	ldr	r3, [pc, #56]	@ (8000938 <PWM_TIM5_CH1_Setduty+0x70>)
 80008fe:	6adb      	ldr	r3, [r3, #44]	@ 0x2c
 8000900:	ee07 3a90 	vmov	s15, r3
 8000904:	eeb8 7a67 	vcvt.f32.u32	s14, s15
 8000908:	edd7 7a01 	vldr	s15, [r7, #4]
 800090c:	ee27 7a27 	vmul.f32	s14, s14, s15
 8000910:	eddf 6a07 	vldr	s13, [pc, #28]	@ 8000930 <PWM_TIM5_CH1_Setduty+0x68>
 8000914:	eec7 7a26 	vdiv.f32	s15, s14, s13
 8000918:	4b07      	ldr	r3, [pc, #28]	@ (8000938 <PWM_TIM5_CH1_Setduty+0x70>)
 800091a:	eefc 7ae7 	vcvt.u32.f32	s15, s15
 800091e:	ee17 2a90 	vmov	r2, s15
 8000922:	635a      	str	r2, [r3, #52]	@ 0x34
}
 8000924:	bf00      	nop
 8000926:	370c      	adds	r7, #12
 8000928:	46bd      	mov	sp, r7
 800092a:	f85d 7b04 	ldr.w	r7, [sp], #4
 800092e:	4770      	bx	lr
 8000930:	42c80000 	.word	0x42c80000
 8000934:	42c80000 	.word	0x42c80000
 8000938:	40000c00 	.word	0x40000c00

0800093c <main>:
#include "gpwm.h"
void SystemClock_Config_Max(void);
uint32_t current_cnt = 0;
uint32_t gCount = 0;
int main(void)
{
 800093c:	b580      	push	{r7, lr}
 800093e:	b086      	sub	sp, #24
 8000940:	af04      	add	r7, sp, #16
	SystemClock_Config_Max();
 8000942:	f000 f837 	bl	80009b4 <SystemClock_Config_Max>
	SystemCoreClock = 216000000;
 8000946:	4b15      	ldr	r3, [pc, #84]	@ (800099c <main+0x60>)
 8000948:	4a15      	ldr	r2, [pc, #84]	@ (80009a0 <main+0x64>)
 800094a:	601a      	str	r2, [r3, #0]
	SPI_GPIO_Init();
 800094c:	f000 f9ce 	bl	8000cec <SPI_GPIO_Init>
	DMA_Init();
 8000950:	f7ff fc72 	bl	8000238 <DMA_Init>
	uint8_t test_data[4] = {0xAA, 0xBB, 0xCC, 0xDD};
 8000954:	4b13      	ldr	r3, [pc, #76]	@ (80009a4 <main+0x68>)
 8000956:	607b      	str	r3, [r7, #4]
	DMA2_config_SPI1_TX((uint32_t)test_data, 4);
 8000958:	1d3b      	adds	r3, r7, #4
 800095a:	2104      	movs	r1, #4
 800095c:	4618      	mov	r0, r3
 800095e:	f000 f8f3 	bl	8000b48 <DMA2_config_SPI1_TX>

	ST7735_Init();              // 1. 초기화 (이전 단계에서 만든 함수)
 8000962:	f7ff fc83 	bl	800026c <ST7735_Init>
	ST7735_FillScreen(0x0000);  // 2. 검정색으로 배경 채우기
 8000966:	2000      	movs	r0, #0
 8000968:	f7ff fcf0 	bl	800034c <ST7735_FillScreen>
	ST7735_WriteString(10, 50, "Hello World", Font_7x10, 0xFFFF, 0x0000);
 800096c:	4b0e      	ldr	r3, [pc, #56]	@ (80009a8 <main+0x6c>)
 800096e:	2200      	movs	r2, #0
 8000970:	9202      	str	r2, [sp, #8]
 8000972:	f64f 72ff 	movw	r2, #65535	@ 0xffff
 8000976:	9201      	str	r2, [sp, #4]
 8000978:	685a      	ldr	r2, [r3, #4]
 800097a:	9200      	str	r2, [sp, #0]
 800097c:	681b      	ldr	r3, [r3, #0]
 800097e:	4a0b      	ldr	r2, [pc, #44]	@ (80009ac <main+0x70>)
 8000980:	2132      	movs	r1, #50	@ 0x32
 8000982:	200a      	movs	r0, #10
 8000984:	f7ff fd58 	bl	8000438 <ST7735_WriteString>
	PWM_TIM5_CH1_Init(1000);
 8000988:	f44f 707a 	mov.w	r0, #1000	@ 0x3e8
 800098c:	f7ff ff2e 	bl	80007ec <PWM_TIM5_CH1_Init>
	PWM_TIM5_CH1_Setduty(80); //80% pwm duty
 8000990:	ed9f 0a07 	vldr	s0, [pc, #28]	@ 80009b0 <main+0x74>
 8000994:	f7ff ff98 	bl	80008c8 <PWM_TIM5_CH1_Setduty>
  while (1)
 8000998:	bf00      	nop
 800099a:	e7fd      	b.n	8000998 <main+0x5c>
 800099c:	20000008 	.word	0x20000008
 80009a0:	0cdfe600 	.word	0x0cdfe600
 80009a4:	ddccbbaa 	.word	0xddccbbaa
 80009a8:	20000000 	.word	0x20000000
 80009ac:	08000ef4 	.word	0x08000ef4
 80009b0:	42a00000 	.word	0x42a00000

080009b4 <SystemClock_Config_Max>:
  if (HAL_RCC_ClockConfig(&RCC_ClkInitStruct, FLASH_LATENCY_3) != HAL_OK)
  {
    Error_Handler();
  }
}
void SystemClock_Config_Max(void) {
 80009b4:	b480      	push	{r7}
 80009b6:	b089      	sub	sp, #36	@ 0x24
 80009b8:	af00      	add	r7, sp, #0
    /* 1. 레지스터 주소 정의 (STM32F767ZI 기준) */
    volatile uint32_t *const RCC_CR      = (uint32_t *)0x40023800UL;
 80009ba:	4b3f      	ldr	r3, [pc, #252]	@ (8000ab8 <SystemClock_Config_Max+0x104>)
 80009bc:	61bb      	str	r3, [r7, #24]
    volatile uint32_t *const RCC_PLLCFGR = (uint32_t *)0x40023804UL;
 80009be:	4b3f      	ldr	r3, [pc, #252]	@ (8000abc <SystemClock_Config_Max+0x108>)
 80009c0:	617b      	str	r3, [r7, #20]
    volatile uint32_t *const RCC_CFGR    = (uint32_t *)0x40023808UL;
 80009c2:	4b3f      	ldr	r3, [pc, #252]	@ (8000ac0 <SystemClock_Config_Max+0x10c>)
 80009c4:	613b      	str	r3, [r7, #16]
    volatile uint32_t *const RCC_APB1ENR = (uint32_t *)0x40023840UL;
 80009c6:	4b3f      	ldr	r3, [pc, #252]	@ (8000ac4 <SystemClock_Config_Max+0x110>)
 80009c8:	60fb      	str	r3, [r7, #12]
    volatile uint32_t *const PWR_CR1     = (uint32_t *)0x40007000UL;
 80009ca:	4b3f      	ldr	r3, [pc, #252]	@ (8000ac8 <SystemClock_Config_Max+0x114>)
 80009cc:	60bb      	str	r3, [r7, #8]
    volatile uint32_t *const PWR_CSR1    = (uint32_t *)0x40007004UL;
 80009ce:	4b3f      	ldr	r3, [pc, #252]	@ (8000acc <SystemClock_Config_Max+0x118>)
 80009d0:	607b      	str	r3, [r7, #4]
    volatile uint32_t *const FLASH_ACR   = (uint32_t *)0x40023C00UL;
 80009d2:	4b3f      	ldr	r3, [pc, #252]	@ (8000ad0 <SystemClock_Config_Max+0x11c>)
 80009d4:	603b      	str	r3, [r7, #0]

    /* 2. HSE (External Crystal) 활성화 */
    *RCC_CR |= (1 << 16); // HSEON
 80009d6:	69bb      	ldr	r3, [r7, #24]
 80009d8:	681b      	ldr	r3, [r3, #0]
 80009da:	f443 3280 	orr.w	r2, r3, #65536	@ 0x10000
 80009de:	69bb      	ldr	r3, [r7, #24]
 80009e0:	601a      	str	r2, [r3, #0]
    while (!(*RCC_CR & (1 << 17))); // HSERDY 대기
 80009e2:	bf00      	nop
 80009e4:	69bb      	ldr	r3, [r7, #24]
 80009e6:	681b      	ldr	r3, [r3, #0]
 80009e8:	f403 3300 	and.w	r3, r3, #131072	@ 0x20000
 80009ec:	2b00      	cmp	r3, #0
 80009ee:	d0f9      	beq.n	80009e4 <SystemClock_Config_Max+0x30>

    /* 3. 전원 인터페이스 클럭 활성화 및 VOS 설정 */
    *RCC_APB1ENR |= (1 << 28); // PWREN
 80009f0:	68fb      	ldr	r3, [r7, #12]
 80009f2:	681b      	ldr	r3, [r3, #0]
 80009f4:	f043 5280 	orr.w	r2, r3, #268435456	@ 0x10000000
 80009f8:	68fb      	ldr	r3, [r7, #12]
 80009fa:	601a      	str	r2, [r3, #0]
    (void)*RCC_APB1ENR; // 클럭 안정화를 위한 더미 읽기
 80009fc:	68fb      	ldr	r3, [r7, #12]
 80009fe:	681b      	ldr	r3, [r3, #0]

    // VOS Scale 1 설정 (비트 14:15를 11로)
    *PWR_CR1 |= (3 << 14);
 8000a00:	68bb      	ldr	r3, [r7, #8]
 8000a02:	681b      	ldr	r3, [r3, #0]
 8000a04:	f443 4240 	orr.w	r2, r3, #49152	@ 0xc000
 8000a08:	68bb      	ldr	r3, [r7, #8]
 8000a0a:	601a      	str	r2, [r3, #0]

    // VOSRDY 대기 (멈춤 방지를 위한 타이아웃 처리)
    uint32_t timeout = 0xFFFF;
 8000a0c:	f64f 73ff 	movw	r3, #65535	@ 0xffff
 8000a10:	61fb      	str	r3, [r7, #28]
    while (!(*PWR_CSR1 & (1 << 14)) && timeout--);
 8000a12:	bf00      	nop
 8000a14:	687b      	ldr	r3, [r7, #4]
 8000a16:	681b      	ldr	r3, [r3, #0]
 8000a18:	f403 4380 	and.w	r3, r3, #16384	@ 0x4000
 8000a1c:	2b00      	cmp	r3, #0
 8000a1e:	d104      	bne.n	8000a2a <SystemClock_Config_Max+0x76>
 8000a20:	69fb      	ldr	r3, [r7, #28]
 8000a22:	1e5a      	subs	r2, r3, #1
 8000a24:	61fa      	str	r2, [r7, #28]
 8000a26:	2b00      	cmp	r3, #0
 8000a28:	d1f4      	bne.n	8000a14 <SystemClock_Config_Max+0x60>

    /* 4. Over-drive 모드 활성화 (216MHz 필수 시퀀스) */
    *PWR_CR1 |= (1 << 16); // ODEN (Over-drive Enable)
 8000a2a:	68bb      	ldr	r3, [r7, #8]
 8000a2c:	681b      	ldr	r3, [r3, #0]
 8000a2e:	f443 3280 	orr.w	r2, r3, #65536	@ 0x10000
 8000a32:	68bb      	ldr	r3, [r7, #8]
 8000a34:	601a      	str	r2, [r3, #0]
    while (!(*PWR_CSR1 & (1 << 16))); // ODRDY 대기
 8000a36:	bf00      	nop
 8000a38:	687b      	ldr	r3, [r7, #4]
 8000a3a:	681b      	ldr	r3, [r3, #0]
 8000a3c:	f403 3380 	and.w	r3, r3, #65536	@ 0x10000
 8000a40:	2b00      	cmp	r3, #0
 8000a42:	d0f9      	beq.n	8000a38 <SystemClock_Config_Max+0x84>

    *PWR_CR1 |= (1 << 17); // ODSWEN (Over-drive Switching Enable)
 8000a44:	68bb      	ldr	r3, [r7, #8]
 8000a46:	681b      	ldr	r3, [r3, #0]
 8000a48:	f443 3200 	orr.w	r2, r3, #131072	@ 0x20000
 8000a4c:	68bb      	ldr	r3, [r7, #8]
 8000a4e:	601a      	str	r2, [r3, #0]
    while (!(*PWR_CSR1 & (1 << 17))); // ODSWRDY 대기
 8000a50:	bf00      	nop
 8000a52:	687b      	ldr	r3, [r7, #4]
 8000a54:	681b      	ldr	r3, [r3, #0]
 8000a56:	f403 3300 	and.w	r3, r3, #131072	@ 0x20000
 8000a5a:	2b00      	cmp	r3, #0
 8000a5c:	d0f9      	beq.n	8000a52 <SystemClock_Config_Max+0x9e>

    /* 5. Flash ACR 설정 (216MHz에서는 반드시 7 Wait States 필요) */
    // ART Accelerator 활성화 (ICEN, DCEN, PRFTEN) + Latency 7WS
    *FLASH_ACR = (1 << 9) | (1 << 10) | (1 << 8) | (7 << 0);
 8000a5e:	683b      	ldr	r3, [r7, #0]
 8000a60:	f240 7207 	movw	r2, #1799	@ 0x707
 8000a64:	601a      	str	r2, [r3, #0]
     * PLL_M = 4   => 8MHz / 4 = 2MHz (PLL 입력은 1~2MHz 권장)
     * PLL_N = 216 => 2MHz * 216 = 432MHz (VCO 출력)
     * PLL_P = 2   => 432MHz / 2 = 216MHz (최종 SYSCLK)
     * SRC = HSE (1 << 22)
     */
    *RCC_PLLCFGR = (4 << 0) | (216 << 6) | (0 << 16) | (1 << 22);
 8000a66:	697b      	ldr	r3, [r7, #20]
 8000a68:	4a1a      	ldr	r2, [pc, #104]	@ (8000ad4 <SystemClock_Config_Max+0x120>)
 8000a6a:	601a      	str	r2, [r3, #0]

    /* 7. PLL 활성화 */
    *RCC_CR |= (1 << 24); // PLLON
 8000a6c:	69bb      	ldr	r3, [r7, #24]
 8000a6e:	681b      	ldr	r3, [r3, #0]
 8000a70:	f043 7280 	orr.w	r2, r3, #16777216	@ 0x1000000
 8000a74:	69bb      	ldr	r3, [r7, #24]
 8000a76:	601a      	str	r2, [r3, #0]
    while (!(*RCC_CR & (1 << 25))); // PLLRDY 대기
 8000a78:	bf00      	nop
 8000a7a:	69bb      	ldr	r3, [r7, #24]
 8000a7c:	681b      	ldr	r3, [r3, #0]
 8000a7e:	f003 7300 	and.w	r3, r3, #33554432	@ 0x2000000
 8000a82:	2b00      	cmp	r3, #0
 8000a84:	d0f9      	beq.n	8000a7a <SystemClock_Config_Max+0xc6>
    /* 8. 버스 분주비(Prescaler) 설정
     * AHB  = SYSCLK / 1 = 216MHz (HPRE = 0xxx)
     * APB1 = SYSCLK / 4 = 54MHz  (PPRE1 = 101, Max 54MHz)
     * APB2 = SYSCLK / 2 = 108MHz (PPRE2 = 100, Max 108MHz)
     */
    *RCC_CFGR = (0 << 4) | (5 << 10) | (4 << 13);
 8000a86:	693b      	ldr	r3, [r7, #16]
 8000a88:	f44f 4214 	mov.w	r2, #37888	@ 0x9400
 8000a8c:	601a      	str	r2, [r3, #0]

    /* 9. 시스템 클럭 전환 (SYSCLK Source = PLL) */
    *RCC_CFGR |= (2 << 0); // SW = PLL
 8000a8e:	693b      	ldr	r3, [r7, #16]
 8000a90:	681b      	ldr	r3, [r3, #0]
 8000a92:	f043 0202 	orr.w	r2, r3, #2
 8000a96:	693b      	ldr	r3, [r7, #16]
 8000a98:	601a      	str	r2, [r3, #0]
    while ((*RCC_CFGR & (0x0C)) != (0x08)); // SWS가 PLL(10)인지 확인
 8000a9a:	bf00      	nop
 8000a9c:	693b      	ldr	r3, [r7, #16]
 8000a9e:	681b      	ldr	r3, [r3, #0]
 8000aa0:	f003 030c 	and.w	r3, r3, #12
 8000aa4:	2b08      	cmp	r3, #8
 8000aa6:	d1f9      	bne.n	8000a9c <SystemClock_Config_Max+0xe8>
}
 8000aa8:	bf00      	nop
 8000aaa:	bf00      	nop
 8000aac:	3724      	adds	r7, #36	@ 0x24
 8000aae:	46bd      	mov	sp, r7
 8000ab0:	f85d 7b04 	ldr.w	r7, [sp], #4
 8000ab4:	4770      	bx	lr
 8000ab6:	bf00      	nop
 8000ab8:	40023800 	.word	0x40023800
 8000abc:	40023804 	.word	0x40023804
 8000ac0:	40023808 	.word	0x40023808
 8000ac4:	40023840 	.word	0x40023840
 8000ac8:	40007000 	.word	0x40007000
 8000acc:	40007004 	.word	0x40007004
 8000ad0:	40023c00 	.word	0x40023c00
 8000ad4:	00403604 	.word	0x00403604

08000ad8 <delay_ms>:
#include "rcc.h"
//uint32_t SystemCoreClock = 216000000;
void delay_ms(uint32_t ms) {
 8000ad8:	b480      	push	{r7}
 8000ada:	b085      	sub	sp, #20
 8000adc:	af00      	add	r7, sp, #0
 8000ade:	6078      	str	r0, [r7, #4]
    if (ms == 0) return;
 8000ae0:	687b      	ldr	r3, [r7, #4]
 8000ae2:	2b00      	cmp	r3, #0
 8000ae4:	d023      	beq.n	8000b2e <delay_ms+0x56>

    // 1. SysTick 설정: 1ms 주기로 설정
    SysTick->LOAD = (SystemCoreClock / 1000) - 1;
 8000ae6:	4b15      	ldr	r3, [pc, #84]	@ (8000b3c <delay_ms+0x64>)
 8000ae8:	681b      	ldr	r3, [r3, #0]
 8000aea:	4a15      	ldr	r2, [pc, #84]	@ (8000b40 <delay_ms+0x68>)
 8000aec:	fba2 2303 	umull	r2, r3, r2, r3
 8000af0:	099b      	lsrs	r3, r3, #6
 8000af2:	4a14      	ldr	r2, [pc, #80]	@ (8000b44 <delay_ms+0x6c>)
 8000af4:	3b01      	subs	r3, #1
 8000af6:	6053      	str	r3, [r2, #4]
    SysTick->VAL = 0; // 현재 값 초기화
 8000af8:	4b12      	ldr	r3, [pc, #72]	@ (8000b44 <delay_ms+0x6c>)
 8000afa:	2200      	movs	r2, #0
 8000afc:	609a      	str	r2, [r3, #8]
    SysTick->CTRL = (1 << 2) | (1 << 0); // Processor Clock 사용, 타이머 활성화
 8000afe:	4b11      	ldr	r3, [pc, #68]	@ (8000b44 <delay_ms+0x6c>)
 8000b00:	2205      	movs	r2, #5
 8000b02:	601a      	str	r2, [r3, #0]

    for (uint32_t i = 0; i < ms; i++) {
 8000b04:	2300      	movs	r3, #0
 8000b06:	60fb      	str	r3, [r7, #12]
 8000b08:	e009      	b.n	8000b1e <delay_ms+0x46>
        while (!(SysTick->CTRL & (1 << 16)));
 8000b0a:	bf00      	nop
 8000b0c:	4b0d      	ldr	r3, [pc, #52]	@ (8000b44 <delay_ms+0x6c>)
 8000b0e:	681b      	ldr	r3, [r3, #0]
 8000b10:	f403 3380 	and.w	r3, r3, #65536	@ 0x10000
 8000b14:	2b00      	cmp	r3, #0
 8000b16:	d0f9      	beq.n	8000b0c <delay_ms+0x34>
    for (uint32_t i = 0; i < ms; i++) {
 8000b18:	68fb      	ldr	r3, [r7, #12]
 8000b1a:	3301      	adds	r3, #1
 8000b1c:	60fb      	str	r3, [r7, #12]
 8000b1e:	68fa      	ldr	r2, [r7, #12]
 8000b20:	687b      	ldr	r3, [r7, #4]
 8000b22:	429a      	cmp	r2, r3
 8000b24:	d3f1      	bcc.n	8000b0a <delay_ms+0x32>
    }

    // 3. 종료 후 타이머 끄기
    SysTick->CTRL = 0;
 8000b26:	4b07      	ldr	r3, [pc, #28]	@ (8000b44 <delay_ms+0x6c>)
 8000b28:	2200      	movs	r2, #0
 8000b2a:	601a      	str	r2, [r3, #0]
 8000b2c:	e000      	b.n	8000b30 <delay_ms+0x58>
    if (ms == 0) return;
 8000b2e:	bf00      	nop
}
 8000b30:	3714      	adds	r7, #20
 8000b32:	46bd      	mov	sp, r7
 8000b34:	f85d 7b04 	ldr.w	r7, [sp], #4
 8000b38:	4770      	bx	lr
 8000b3a:	bf00      	nop
 8000b3c:	20000008 	.word	0x20000008
 8000b40:	10624dd3 	.word	0x10624dd3
 8000b44:	e000e010 	.word	0xe000e010

08000b48 <DMA2_config_SPI1_TX>:
#include "spi.h"

void DMA2_config_SPI1_TX(uint32_t buffer_addr, uint32_t size){
 8000b48:	b480      	push	{r7}
 8000b4a:	b083      	sub	sp, #12
 8000b4c:	af00      	add	r7, sp, #0
 8000b4e:	6078      	str	r0, [r7, #4]
 8000b50:	6039      	str	r1, [r7, #0]
    /* 1. 클럭 활성화 */
    RCC->APB2ENR |= (1 << 12); // SPI1 Clock
 8000b52:	4b30      	ldr	r3, [pc, #192]	@ (8000c14 <DMA2_config_SPI1_TX+0xcc>)
 8000b54:	6c5b      	ldr	r3, [r3, #68]	@ 0x44
 8000b56:	4a2f      	ldr	r2, [pc, #188]	@ (8000c14 <DMA2_config_SPI1_TX+0xcc>)
 8000b58:	f443 5380 	orr.w	r3, r3, #4096	@ 0x1000
 8000b5c:	6453      	str	r3, [r2, #68]	@ 0x44
    RCC->AHB1ENR |= (1 << 22); // DMA2 Clock
 8000b5e:	4b2d      	ldr	r3, [pc, #180]	@ (8000c14 <DMA2_config_SPI1_TX+0xcc>)
 8000b60:	6b1b      	ldr	r3, [r3, #48]	@ 0x30
 8000b62:	4a2c      	ldr	r2, [pc, #176]	@ (8000c14 <DMA2_config_SPI1_TX+0xcc>)
 8000b64:	f443 0380 	orr.w	r3, r3, #4194304	@ 0x400000
 8000b68:	6313      	str	r3, [r2, #48]	@ 0x30

    /* 2. DMA 스트림 정지 및 완전 종료 대기 */
    DMA2->S[3].CR &= ~(1 << 0);           // EN = 0
 8000b6a:	4b2b      	ldr	r3, [pc, #172]	@ (8000c18 <DMA2_config_SPI1_TX+0xd0>)
 8000b6c:	6d9b      	ldr	r3, [r3, #88]	@ 0x58
 8000b6e:	4a2a      	ldr	r2, [pc, #168]	@ (8000c18 <DMA2_config_SPI1_TX+0xd0>)
 8000b70:	f023 0301 	bic.w	r3, r3, #1
 8000b74:	6593      	str	r3, [r2, #88]	@ 0x58
    while (DMA2->S[3].CR & (1 << 0));      // 하드웨어가 꺼질 때까지 대기
 8000b76:	bf00      	nop
 8000b78:	4b27      	ldr	r3, [pc, #156]	@ (8000c18 <DMA2_config_SPI1_TX+0xd0>)
 8000b7a:	6d9b      	ldr	r3, [r3, #88]	@ 0x58
 8000b7c:	f003 0301 	and.w	r3, r3, #1
 8000b80:	2b00      	cmp	r3, #0
 8000b82:	d1f9      	bne.n	8000b78 <DMA2_config_SPI1_TX+0x30>

    /* 3. 레지스터 초기 설정 (|= 대신 = 사용 권장) */
    DMA2->S[3].PAR  = (uint32_t)&(SPI1->DR);
 8000b84:	4b24      	ldr	r3, [pc, #144]	@ (8000c18 <DMA2_config_SPI1_TX+0xd0>)
 8000b86:	4a25      	ldr	r2, [pc, #148]	@ (8000c1c <DMA2_config_SPI1_TX+0xd4>)
 8000b88:	661a      	str	r2, [r3, #96]	@ 0x60
    DMA2->S[3].M0AR = buffer_addr;
 8000b8a:	4a23      	ldr	r2, [pc, #140]	@ (8000c18 <DMA2_config_SPI1_TX+0xd0>)
 8000b8c:	687b      	ldr	r3, [r7, #4]
 8000b8e:	6653      	str	r3, [r2, #100]	@ 0x64
    DMA2->S[3].NDTR = size;
 8000b90:	4a21      	ldr	r2, [pc, #132]	@ (8000c18 <DMA2_config_SPI1_TX+0xd0>)
 8000b92:	683b      	ldr	r3, [r7, #0]
 8000b94:	65d3      	str	r3, [r2, #92]	@ 0x5c

    // CR 설정 초기화 후 필요한 것만 셋업
    // Channel 3(3<<25), Memory Inc(1<<10), DIR: Mem-to-Peri(1<<6)
    DMA2->S[3].CR = (3 << 25) | (1 << 10) | (1 << 6);
 8000b96:	4b20      	ldr	r3, [pc, #128]	@ (8000c18 <DMA2_config_SPI1_TX+0xd0>)
 8000b98:	4a21      	ldr	r2, [pc, #132]	@ (8000c20 <DMA2_config_SPI1_TX+0xd8>)
 8000b9a:	659a      	str	r2, [r3, #88]	@ 0x58

    /* 4. SPI1 상세 설정 (STM32F7 특화) */
    SPI1->CR1 &= ~(1 << 6); // 일단 SPI 끄기 (설정 변경을 위해)
 8000b9c:	4b21      	ldr	r3, [pc, #132]	@ (8000c24 <DMA2_config_SPI1_TX+0xdc>)
 8000b9e:	681b      	ldr	r3, [r3, #0]
 8000ba0:	4a20      	ldr	r2, [pc, #128]	@ (8000c24 <DMA2_config_SPI1_TX+0xdc>)
 8000ba2:	f023 0340 	bic.w	r3, r3, #64	@ 0x40
 8000ba6:	6013      	str	r3, [r2, #0]

    // Baud Rate: 108MHz / 16 = 6.75MHz (BR[2:0] = 011)
    SPI1->CR1 &= ~(7 << 3);
 8000ba8:	4b1e      	ldr	r3, [pc, #120]	@ (8000c24 <DMA2_config_SPI1_TX+0xdc>)
 8000baa:	681b      	ldr	r3, [r3, #0]
 8000bac:	4a1d      	ldr	r2, [pc, #116]	@ (8000c24 <DMA2_config_SPI1_TX+0xdc>)
 8000bae:	f023 0338 	bic.w	r3, r3, #56	@ 0x38
 8000bb2:	6013      	str	r3, [r2, #0]
    SPI1->CR1 |=  (3 << 3);
 8000bb4:	4b1b      	ldr	r3, [pc, #108]	@ (8000c24 <DMA2_config_SPI1_TX+0xdc>)
 8000bb6:	681b      	ldr	r3, [r3, #0]
 8000bb8:	4a1a      	ldr	r2, [pc, #104]	@ (8000c24 <DMA2_config_SPI1_TX+0xdc>)
 8000bba:	f043 0318 	orr.w	r3, r3, #24
 8000bbe:	6013      	str	r3, [r2, #0]
    SPI1->CR1 &= ~(1 << 0); // CPHA = 0
 8000bc0:	4b18      	ldr	r3, [pc, #96]	@ (8000c24 <DMA2_config_SPI1_TX+0xdc>)
 8000bc2:	681b      	ldr	r3, [r3, #0]
 8000bc4:	4a17      	ldr	r2, [pc, #92]	@ (8000c24 <DMA2_config_SPI1_TX+0xdc>)
 8000bc6:	f023 0301 	bic.w	r3, r3, #1
 8000bca:	6013      	str	r3, [r2, #0]
    SPI1->CR1 &= ~(1 << 1); // CPOL = 0
 8000bcc:	4b15      	ldr	r3, [pc, #84]	@ (8000c24 <DMA2_config_SPI1_TX+0xdc>)
 8000bce:	681b      	ldr	r3, [r3, #0]
 8000bd0:	4a14      	ldr	r2, [pc, #80]	@ (8000c24 <DMA2_config_SPI1_TX+0xdc>)
 8000bd2:	f023 0302 	bic.w	r3, r3, #2
 8000bd6:	6013      	str	r3, [r2, #0]

    // 3. STM32F7 핵심: Data Size 8-bit 설정 (DS[3:0] = 0111)
    SPI1->CR2 &= ~(0xF << 8);
 8000bd8:	4b12      	ldr	r3, [pc, #72]	@ (8000c24 <DMA2_config_SPI1_TX+0xdc>)
 8000bda:	685b      	ldr	r3, [r3, #4]
 8000bdc:	4a11      	ldr	r2, [pc, #68]	@ (8000c24 <DMA2_config_SPI1_TX+0xdc>)
 8000bde:	f423 6370 	bic.w	r3, r3, #3840	@ 0xf00
 8000be2:	6053      	str	r3, [r2, #4]
    SPI1->CR2 |=  (0x7 << 8);
 8000be4:	4b0f      	ldr	r3, [pc, #60]	@ (8000c24 <DMA2_config_SPI1_TX+0xdc>)
 8000be6:	685b      	ldr	r3, [r3, #4]
 8000be8:	4a0e      	ldr	r2, [pc, #56]	@ (8000c24 <DMA2_config_SPI1_TX+0xdc>)
 8000bea:	f443 63e0 	orr.w	r3, r3, #1792	@ 0x700
 8000bee:	6053      	str	r3, [r2, #4]

    // 4. STM32F7 핵심: FIFO Threshold 8-bit 설정 (FRXTH = 1)
    // 이 설정이 없으면 8비트 전송이 꼬입니다.
    SPI1->CR2 |= (1 << 12);
 8000bf0:	4b0c      	ldr	r3, [pc, #48]	@ (8000c24 <DMA2_config_SPI1_TX+0xdc>)
 8000bf2:	685b      	ldr	r3, [r3, #4]
 8000bf4:	4a0b      	ldr	r2, [pc, #44]	@ (8000c24 <DMA2_config_SPI1_TX+0xdc>)
 8000bf6:	f443 5380 	orr.w	r3, r3, #4096	@ 0x1000
 8000bfa:	6053      	str	r3, [r2, #4]
    //활성화
    //SPI1->CR2 |= (1 << 1);
    SPI1->CR1 |= (1 << 6) | (1 << 2) | (1 << 8) | (1 << 9);
 8000bfc:	4b09      	ldr	r3, [pc, #36]	@ (8000c24 <DMA2_config_SPI1_TX+0xdc>)
 8000bfe:	681b      	ldr	r3, [r3, #0]
 8000c00:	4a08      	ldr	r2, [pc, #32]	@ (8000c24 <DMA2_config_SPI1_TX+0xdc>)
 8000c02:	f443 7351 	orr.w	r3, r3, #836	@ 0x344
 8000c06:	6013      	str	r3, [r2, #0]
}
 8000c08:	bf00      	nop
 8000c0a:	370c      	adds	r7, #12
 8000c0c:	46bd      	mov	sp, r7
 8000c0e:	f85d 7b04 	ldr.w	r7, [sp], #4
 8000c12:	4770      	bx	lr
 8000c14:	40023800 	.word	0x40023800
 8000c18:	40026400 	.word	0x40026400
 8000c1c:	4001300c 	.word	0x4001300c
 8000c20:	06000440 	.word	0x06000440
 8000c24:	40013000 	.word	0x40013000

08000c28 <SPI1_DMA_transfer>:

void SPI1_DMA_transfer(uint8_t *addr, uint32_t len) {
 8000c28:	b480      	push	{r7}
 8000c2a:	b083      	sub	sp, #12
 8000c2c:	af00      	add	r7, sp, #0
 8000c2e:	6078      	str	r0, [r7, #4]
 8000c30:	6039      	str	r1, [r7, #0]
	SPI1->CR2 |= (1 << 1);
 8000c32:	4b20      	ldr	r3, [pc, #128]	@ (8000cb4 <SPI1_DMA_transfer+0x8c>)
 8000c34:	685b      	ldr	r3, [r3, #4]
 8000c36:	4a1f      	ldr	r2, [pc, #124]	@ (8000cb4 <SPI1_DMA_transfer+0x8c>)
 8000c38:	f043 0302 	orr.w	r3, r3, #2
 8000c3c:	6053      	str	r3, [r2, #4]
	// 1. DMA 스트림 비활성화 (설정 변경을 위해 필수)
    DMA2->S[3].CR &= ~(1 << 0);
 8000c3e:	4b1e      	ldr	r3, [pc, #120]	@ (8000cb8 <SPI1_DMA_transfer+0x90>)
 8000c40:	6d9b      	ldr	r3, [r3, #88]	@ 0x58
 8000c42:	4a1d      	ldr	r2, [pc, #116]	@ (8000cb8 <SPI1_DMA_transfer+0x90>)
 8000c44:	f023 0301 	bic.w	r3, r3, #1
 8000c48:	6593      	str	r3, [r2, #88]	@ 0x58
    while (DMA2->S[3].CR & (1 << 0)); // 완전히 꺼질 때까지 대기
 8000c4a:	bf00      	nop
 8000c4c:	4b1a      	ldr	r3, [pc, #104]	@ (8000cb8 <SPI1_DMA_transfer+0x90>)
 8000c4e:	6d9b      	ldr	r3, [r3, #88]	@ 0x58
 8000c50:	f003 0301 	and.w	r3, r3, #1
 8000c54:	2b00      	cmp	r3, #0
 8000c56:	d1f9      	bne.n	8000c4c <SPI1_DMA_transfer+0x24>

    // 2. 새로운 메모리 주소(M0AR)와 데이터 개수(NDTR) 설정
    DMA2->S[3].M0AR = (uint32_t)addr;
 8000c58:	4a17      	ldr	r2, [pc, #92]	@ (8000cb8 <SPI1_DMA_transfer+0x90>)
 8000c5a:	687b      	ldr	r3, [r7, #4]
 8000c5c:	6653      	str	r3, [r2, #100]	@ 0x64
    DMA2->S[3].NDTR = len;
 8000c5e:	4a16      	ldr	r2, [pc, #88]	@ (8000cb8 <SPI1_DMA_transfer+0x90>)
 8000c60:	683b      	ldr	r3, [r7, #0]
 8000c62:	65d3      	str	r3, [r2, #92]	@ 0x5c

    // 3. 이전 전송 플래그들 모두 청소 (LIFCR)
    // Stream 3의 플래그 위치: FEIF3, DMEIF3, TEIF3, HTIF3, TCIF3
    DMA2->LIFCR = (0x3D << 22);
 8000c64:	4b14      	ldr	r3, [pc, #80]	@ (8000cb8 <SPI1_DMA_transfer+0x90>)
 8000c66:	f04f 6274 	mov.w	r2, #255852544	@ 0xf400000
 8000c6a:	609a      	str	r2, [r3, #8]

    // 4. DMA 스트림 다시 활성화
    DMA2->S[3].CR |= (1 << 0);
 8000c6c:	4b12      	ldr	r3, [pc, #72]	@ (8000cb8 <SPI1_DMA_transfer+0x90>)
 8000c6e:	6d9b      	ldr	r3, [r3, #88]	@ 0x58
 8000c70:	4a11      	ldr	r2, [pc, #68]	@ (8000cb8 <SPI1_DMA_transfer+0x90>)
 8000c72:	f043 0301 	orr.w	r3, r3, #1
 8000c76:	6593      	str	r3, [r2, #88]	@ 0x58

    // 5. 전송 완료(TC) 플래그 대기
    while (!(DMA2->LISR & (1 << 27)));
 8000c78:	bf00      	nop
 8000c7a:	4b0f      	ldr	r3, [pc, #60]	@ (8000cb8 <SPI1_DMA_transfer+0x90>)
 8000c7c:	681b      	ldr	r3, [r3, #0]
 8000c7e:	f003 6300 	and.w	r3, r3, #134217728	@ 0x8000000
 8000c82:	2b00      	cmp	r3, #0
 8000c84:	d0f9      	beq.n	8000c7a <SPI1_DMA_transfer+0x52>

    // 6. 전송 완료 플래그 청소
    DMA2->LIFCR = (1 << 27);
 8000c86:	4b0c      	ldr	r3, [pc, #48]	@ (8000cb8 <SPI1_DMA_transfer+0x90>)
 8000c88:	f04f 6200 	mov.w	r2, #134217728	@ 0x8000000
 8000c8c:	609a      	str	r2, [r3, #8]
    while (SPI1->SR & (1 << 7)); //대기 **오류 원인**
 8000c8e:	bf00      	nop
 8000c90:	4b08      	ldr	r3, [pc, #32]	@ (8000cb4 <SPI1_DMA_transfer+0x8c>)
 8000c92:	689b      	ldr	r3, [r3, #8]
 8000c94:	f003 0380 	and.w	r3, r3, #128	@ 0x80
 8000c98:	2b00      	cmp	r3, #0
 8000c9a:	d1f9      	bne.n	8000c90 <SPI1_DMA_transfer+0x68>
    SPI1->CR2 &= ~(1 << 1);
 8000c9c:	4b05      	ldr	r3, [pc, #20]	@ (8000cb4 <SPI1_DMA_transfer+0x8c>)
 8000c9e:	685b      	ldr	r3, [r3, #4]
 8000ca0:	4a04      	ldr	r2, [pc, #16]	@ (8000cb4 <SPI1_DMA_transfer+0x8c>)
 8000ca2:	f023 0302 	bic.w	r3, r3, #2
 8000ca6:	6053      	str	r3, [r2, #4]
}
 8000ca8:	bf00      	nop
 8000caa:	370c      	adds	r7, #12
 8000cac:	46bd      	mov	sp, r7
 8000cae:	f85d 7b04 	ldr.w	r7, [sp], #4
 8000cb2:	4770      	bx	lr
 8000cb4:	40013000 	.word	0x40013000
 8000cb8:	40026400 	.word	0x40026400

08000cbc <CS_ON>:
    while (!(SPI1->SR & (1 << 1))); // TXE 대기
    *((volatile uint8_t *)&SPI1->DR) = data;
    while (SPI1->SR & (1 << 7));   // BSY 대기 **오류 원인**
}

void CS_ON(){
 8000cbc:	b580      	push	{r7, lr}
 8000cbe:	af00      	add	r7, sp, #0
	GPIO_Write_Pin(GPIOD, 14, 0);
 8000cc0:	2200      	movs	r2, #0
 8000cc2:	210e      	movs	r1, #14
 8000cc4:	4802      	ldr	r0, [pc, #8]	@ (8000cd0 <CS_ON+0x14>)
 8000cc6:	f7ff fcae 	bl	8000626 <GPIO_Write_Pin>
}
 8000cca:	bf00      	nop
 8000ccc:	bd80      	pop	{r7, pc}
 8000cce:	bf00      	nop
 8000cd0:	40020c00 	.word	0x40020c00

08000cd4 <CS_OFF>:
void CS_OFF(){
 8000cd4:	b580      	push	{r7, lr}
 8000cd6:	af00      	add	r7, sp, #0
	GPIO_Write_Pin(GPIOD, 14, 1);
 8000cd8:	2201      	movs	r2, #1
 8000cda:	210e      	movs	r1, #14
 8000cdc:	4802      	ldr	r0, [pc, #8]	@ (8000ce8 <CS_OFF+0x14>)
 8000cde:	f7ff fca2 	bl	8000626 <GPIO_Write_Pin>
}
 8000ce2:	bf00      	nop
 8000ce4:	bd80      	pop	{r7, pc}
 8000ce6:	bf00      	nop
 8000ce8:	40020c00 	.word	0x40020c00

08000cec <SPI_GPIO_Init>:

void SPI_GPIO_Init(){
 8000cec:	b580      	push	{r7, lr}
 8000cee:	af00      	add	r7, sp, #0
	GPIO_Clock_Enable(GPIOD);
 8000cf0:	4825      	ldr	r0, [pc, #148]	@ (8000d88 <SPI_GPIO_Init+0x9c>)
 8000cf2:	f7ff fcb9 	bl	8000668 <GPIO_Clock_Enable>
	GPIO_pin_Mode(GPIOD, 14, 1);
 8000cf6:	2201      	movs	r2, #1
 8000cf8:	210e      	movs	r1, #14
 8000cfa:	4823      	ldr	r0, [pc, #140]	@ (8000d88 <SPI_GPIO_Init+0x9c>)
 8000cfc:	f7ff fc70 	bl	80005e0 <GPIO_pin_Mode>
	GPIO_Speed_Set(GPIOD, 14, 3);
 8000d00:	2203      	movs	r2, #3
 8000d02:	210e      	movs	r1, #14
 8000d04:	4820      	ldr	r0, [pc, #128]	@ (8000d88 <SPI_GPIO_Init+0x9c>)
 8000d06:	f7ff fd4d 	bl	80007a4 <GPIO_Speed_Set>
	GPIO_Clock_Enable(GPIOA);
 8000d0a:	4820      	ldr	r0, [pc, #128]	@ (8000d8c <SPI_GPIO_Init+0xa0>)
 8000d0c:	f7ff fcac 	bl	8000668 <GPIO_Clock_Enable>
	GPIO_Clock_Enable(GPIOF);
 8000d10:	481f      	ldr	r0, [pc, #124]	@ (8000d90 <SPI_GPIO_Init+0xa4>)
 8000d12:	f7ff fca9 	bl	8000668 <GPIO_Clock_Enable>
	GPIO_pin_Mode(GPIOF, 13, 1);
 8000d16:	2201      	movs	r2, #1
 8000d18:	210d      	movs	r1, #13
 8000d1a:	481d      	ldr	r0, [pc, #116]	@ (8000d90 <SPI_GPIO_Init+0xa4>)
 8000d1c:	f7ff fc60 	bl	80005e0 <GPIO_pin_Mode>
	GPIO_Speed_Set(GPIOF, 13, 3);
 8000d20:	2203      	movs	r2, #3
 8000d22:	210d      	movs	r1, #13
 8000d24:	481a      	ldr	r0, [pc, #104]	@ (8000d90 <SPI_GPIO_Init+0xa4>)
 8000d26:	f7ff fd3d 	bl	80007a4 <GPIO_Speed_Set>

	GPIO_pin_Mode(GPIOA, 5, 2); // PA5 -> AF Mode
 8000d2a:	2202      	movs	r2, #2
 8000d2c:	2105      	movs	r1, #5
 8000d2e:	4817      	ldr	r0, [pc, #92]	@ (8000d8c <SPI_GPIO_Init+0xa0>)
 8000d30:	f7ff fc56 	bl	80005e0 <GPIO_pin_Mode>
	GPIO_pin_Mode(GPIOA, 7, 2); // PA7 -> AF M
 8000d34:	2202      	movs	r2, #2
 8000d36:	2107      	movs	r1, #7
 8000d38:	4814      	ldr	r0, [pc, #80]	@ (8000d8c <SPI_GPIO_Init+0xa0>)
 8000d3a:	f7ff fc51 	bl	80005e0 <GPIO_pin_Mode>
	GPIO_Speed_Set(GPIOA, 5, 3);
 8000d3e:	2203      	movs	r2, #3
 8000d40:	2105      	movs	r1, #5
 8000d42:	4812      	ldr	r0, [pc, #72]	@ (8000d8c <SPI_GPIO_Init+0xa0>)
 8000d44:	f7ff fd2e 	bl	80007a4 <GPIO_Speed_Set>
	GPIO_Speed_Set(GPIOA, 7, 3);
 8000d48:	2203      	movs	r2, #3
 8000d4a:	2107      	movs	r1, #7
 8000d4c:	480f      	ldr	r0, [pc, #60]	@ (8000d8c <SPI_GPIO_Init+0xa0>)
 8000d4e:	f7ff fd29 	bl	80007a4 <GPIO_Speed_Set>

	GPIOA->AFRL &= ~(0xF << (5 * 4)); // 초기화
 8000d52:	4b0e      	ldr	r3, [pc, #56]	@ (8000d8c <SPI_GPIO_Init+0xa0>)
 8000d54:	6a1b      	ldr	r3, [r3, #32]
 8000d56:	4a0d      	ldr	r2, [pc, #52]	@ (8000d8c <SPI_GPIO_Init+0xa0>)
 8000d58:	f423 0370 	bic.w	r3, r3, #15728640	@ 0xf00000
 8000d5c:	6213      	str	r3, [r2, #32]
	GPIOA->AFRL |=  (0x5 << (5 * 4)); // AF5(SPI1) 주입
 8000d5e:	4b0b      	ldr	r3, [pc, #44]	@ (8000d8c <SPI_GPIO_Init+0xa0>)
 8000d60:	6a1b      	ldr	r3, [r3, #32]
 8000d62:	4a0a      	ldr	r2, [pc, #40]	@ (8000d8c <SPI_GPIO_Init+0xa0>)
 8000d64:	f443 03a0 	orr.w	r3, r3, #5242880	@ 0x500000
 8000d68:	6213      	str	r3, [r2, #32]
	GPIOA->AFRL &= ~(0xF << (7 * 4)); // 초기화
 8000d6a:	4b08      	ldr	r3, [pc, #32]	@ (8000d8c <SPI_GPIO_Init+0xa0>)
 8000d6c:	6a1b      	ldr	r3, [r3, #32]
 8000d6e:	4a07      	ldr	r2, [pc, #28]	@ (8000d8c <SPI_GPIO_Init+0xa0>)
 8000d70:	f023 4370 	bic.w	r3, r3, #4026531840	@ 0xf0000000
 8000d74:	6213      	str	r3, [r2, #32]
	GPIOA->AFRL |=  (0x5 << (7 * 4)); // AF5(SPI1) 주입
 8000d76:	4b05      	ldr	r3, [pc, #20]	@ (8000d8c <SPI_GPIO_Init+0xa0>)
 8000d78:	6a1b      	ldr	r3, [r3, #32]
 8000d7a:	4a04      	ldr	r2, [pc, #16]	@ (8000d8c <SPI_GPIO_Init+0xa0>)
 8000d7c:	f043 43a0 	orr.w	r3, r3, #1342177280	@ 0x50000000
 8000d80:	6213      	str	r3, [r2, #32]
}
 8000d82:	bf00      	nop
 8000d84:	bd80      	pop	{r7, pc}
 8000d86:	bf00      	nop
 8000d88:	40020c00 	.word	0x40020c00
 8000d8c:	40020000 	.word	0x40020000
 8000d90:	40021400 	.word	0x40021400

08000d94 <NMI_Handler>:
/******************************************************************************/
/**
  * @brief This function handles Non maskable interrupt.
  */
void NMI_Handler(void)
{
 8000d94:	b480      	push	{r7}
 8000d96:	af00      	add	r7, sp, #0
  /* USER CODE BEGIN NonMaskableInt_IRQn 0 */

  /* USER CODE END NonMaskableInt_IRQn 0 */
  /* USER CODE BEGIN NonMaskableInt_IRQn 1 */
   while (1)
 8000d98:	bf00      	nop
 8000d9a:	e7fd      	b.n	8000d98 <NMI_Handler+0x4>

08000d9c <HardFault_Handler>:

/**
  * @brief This function handles Hard fault interrupt.
  */
void HardFault_Handler(void)
{
 8000d9c:	b480      	push	{r7}
 8000d9e:	af00      	add	r7, sp, #0
  /* USER CODE BEGIN HardFault_IRQn 0 */

  /* USER CODE END HardFault_IRQn 0 */
  while (1)
 8000da0:	bf00      	nop
 8000da2:	e7fd      	b.n	8000da0 <HardFault_Handler+0x4>

08000da4 <MemManage_Handler>:

/**
  * @brief This function handles Memory management fault.
  */
void MemManage_Handler(void)
{
 8000da4:	b480      	push	{r7}
 8000da6:	af00      	add	r7, sp, #0
  /* USER CODE BEGIN MemoryManagement_IRQn 0 */

  /* USER CODE END MemoryManagement_IRQn 0 */
  while (1)
 8000da8:	bf00      	nop
 8000daa:	e7fd      	b.n	8000da8 <MemManage_Handler+0x4>

08000dac <BusFault_Handler>:

/**
  * @brief This function handles Pre-fetch fault, memory access fault.
  */
void BusFault_Handler(void)
{
 8000dac:	b480      	push	{r7}
 8000dae:	af00      	add	r7, sp, #0
  /* USER CODE BEGIN BusFault_IRQn 0 */

  /* USER CODE END BusFault_IRQn 0 */
  while (1)
 8000db0:	bf00      	nop
 8000db2:	e7fd      	b.n	8000db0 <BusFault_Handler+0x4>

08000db4 <UsageFault_Handler>:

/**
  * @brief This function handles Undefined instruction or illegal state.
  */
void UsageFault_Handler(void)
{
 8000db4:	b480      	push	{r7}
 8000db6:	af00      	add	r7, sp, #0
  /* USER CODE BEGIN UsageFault_IRQn 0 */

  /* USER CODE END UsageFault_IRQn 0 */
  while (1)
 8000db8:	bf00      	nop
 8000dba:	e7fd      	b.n	8000db8 <UsageFault_Handler+0x4>

08000dbc <SVC_Handler>:

/**
  * @brief This function handles System service call via SWI instruction.
  */
void SVC_Handler(void)
{
 8000dbc:	b480      	push	{r7}
 8000dbe:	af00      	add	r7, sp, #0

  /* USER CODE END SVCall_IRQn 0 */
  /* USER CODE BEGIN SVCall_IRQn 1 */

  /* USER CODE END SVCall_IRQn 1 */
}
 8000dc0:	bf00      	nop
 8000dc2:	46bd      	mov	sp, r7
 8000dc4:	f85d 7b04 	ldr.w	r7, [sp], #4
 8000dc8:	4770      	bx	lr

08000dca <DebugMon_Handler>:

/**
  * @brief This function handles Debug monitor.
  */
void DebugMon_Handler(void)
{
 8000dca:	b480      	push	{r7}
 8000dcc:	af00      	add	r7, sp, #0

  /* USER CODE END DebugMonitor_IRQn 0 */
  /* USER CODE BEGIN DebugMonitor_IRQn 1 */

  /* USER CODE END DebugMonitor_IRQn 1 */
}
 8000dce:	bf00      	nop
 8000dd0:	46bd      	mov	sp, r7
 8000dd2:	f85d 7b04 	ldr.w	r7, [sp], #4
 8000dd6:	4770      	bx	lr

08000dd8 <PendSV_Handler>:

/**
  * @brief This function handles Pendable request for system service.
  */
void PendSV_Handler(void)
{
 8000dd8:	b480      	push	{r7}
 8000dda:	af00      	add	r7, sp, #0

  /* USER CODE END PendSV_IRQn 0 */
  /* USER CODE BEGIN PendSV_IRQn 1 */

  /* USER CODE END PendSV_IRQn 1 */
}
 8000ddc:	bf00      	nop
 8000dde:	46bd      	mov	sp, r7
 8000de0:	f85d 7b04 	ldr.w	r7, [sp], #4
 8000de4:	4770      	bx	lr

08000de6 <SysTick_Handler>:

/**
  * @brief This function handles System tick timer.
  */
void SysTick_Handler(void)
{
 8000de6:	b580      	push	{r7, lr}
 8000de8:	af00      	add	r7, sp, #0
  /* USER CODE BEGIN SysTick_IRQn 0 */

  /* USER CODE END SysTick_IRQn 0 */
  HAL_IncTick();
 8000dea:	f000 f83f 	bl	8000e6c <HAL_IncTick>
  /* USER CODE BEGIN SysTick_IRQn 1 */

  /* USER CODE END SysTick_IRQn 1 */
}
 8000dee:	bf00      	nop
 8000df0:	bd80      	pop	{r7, pc}
	...

08000df4 <SystemInit>:
  *         SystemFrequency variable.
  * @param  None
  * @retval None
  */
void SystemInit(void)
{
 8000df4:	b480      	push	{r7}
 8000df6:	af00      	add	r7, sp, #0
  /* FPU settings ------------------------------------------------------------*/
#if (__FPU_PRESENT == 1) && (__FPU_USED == 1)
  SCB->CPACR |= ((3UL << 10*2)|(3UL << 11*2));  /* set CP10 and CP11 Full Access */
 8000df8:	4b06      	ldr	r3, [pc, #24]	@ (8000e14 <SystemInit+0x20>)
 8000dfa:	f8d3 3088 	ldr.w	r3, [r3, #136]	@ 0x88
 8000dfe:	4a05      	ldr	r2, [pc, #20]	@ (8000e14 <SystemInit+0x20>)
 8000e00:	f443 0370 	orr.w	r3, r3, #15728640	@ 0xf00000
 8000e04:	f8c2 3088 	str.w	r3, [r2, #136]	@ 0x88

  /* Configure the Vector Table location -------------------------------------*/
#if defined(USER_VECT_TAB_ADDRESS)
  SCB->VTOR = VECT_TAB_BASE_ADDRESS | VECT_TAB_OFFSET; /* Vector Table Relocation in Internal SRAM */
#endif /* USER_VECT_TAB_ADDRESS */
}
 8000e08:	bf00      	nop
 8000e0a:	46bd      	mov	sp, r7
 8000e0c:	f85d 7b04 	ldr.w	r7, [sp], #4
 8000e10:	4770      	bx	lr
 8000e12:	bf00      	nop
 8000e14:	e000ed00 	.word	0xe000ed00

08000e18 <Reset_Handler>:

    .section  .text.Reset_Handler
  .weak  Reset_Handler
  .type  Reset_Handler, %function
Reset_Handler:  
  ldr   sp, =_estack      /* set stack pointer */
 8000e18:	f8df d034 	ldr.w	sp, [pc, #52]	@ 8000e50 <LoopFillZerobss+0xe>

/* Call the clock system initialization function.*/
  bl  SystemInit   
 8000e1c:	f7ff ffea 	bl	8000df4 <SystemInit>

/* Copy the data segment initializers from flash to SRAM */  
  ldr r0, =_sdata
 8000e20:	480c      	ldr	r0, [pc, #48]	@ (8000e54 <LoopFillZerobss+0x12>)
  ldr r1, =_edata
 8000e22:	490d      	ldr	r1, [pc, #52]	@ (8000e58 <LoopFillZerobss+0x16>)
  ldr r2, =_sidata
 8000e24:	4a0d      	ldr	r2, [pc, #52]	@ (8000e5c <LoopFillZerobss+0x1a>)
  movs r3, #0
 8000e26:	2300      	movs	r3, #0
  b LoopCopyDataInit
 8000e28:	e002      	b.n	8000e30 <LoopCopyDataInit>

08000e2a <CopyDataInit>:

CopyDataInit:
  ldr r4, [r2, r3]
 8000e2a:	58d4      	ldr	r4, [r2, r3]
  str r4, [r0, r3]
 8000e2c:	50c4      	str	r4, [r0, r3]
  adds r3, r3, #4
 8000e2e:	3304      	adds	r3, #4

08000e30 <LoopCopyDataInit>:

LoopCopyDataInit:
  adds r4, r0, r3
 8000e30:	18c4      	adds	r4, r0, r3
  cmp r4, r1
 8000e32:	428c      	cmp	r4, r1
  bcc CopyDataInit
 8000e34:	d3f9      	bcc.n	8000e2a <CopyDataInit>
  
/* Zero fill the bss segment. */
  ldr r2, =_sbss
 8000e36:	4a0a      	ldr	r2, [pc, #40]	@ (8000e60 <LoopFillZerobss+0x1e>)
  ldr r4, =_ebss
 8000e38:	4c0a      	ldr	r4, [pc, #40]	@ (8000e64 <LoopFillZerobss+0x22>)
  movs r3, #0
 8000e3a:	2300      	movs	r3, #0
  b LoopFillZerobss
 8000e3c:	e001      	b.n	8000e42 <LoopFillZerobss>

08000e3e <FillZerobss>:

FillZerobss:
  str  r3, [r2]
 8000e3e:	6013      	str	r3, [r2, #0]
  adds r2, r2, #4
 8000e40:	3204      	adds	r2, #4

08000e42 <LoopFillZerobss>:

LoopFillZerobss:
  cmp r2, r4
 8000e42:	42a2      	cmp	r2, r4
  bcc FillZerobss
 8000e44:	d3fb      	bcc.n	8000e3e <FillZerobss>
  
/* Call static constructors */
    bl __libc_init_array
 8000e46:	f000 f825 	bl	8000e94 <__libc_init_array>
/* Call the application's entry point.*/
  bl  main
 8000e4a:	f7ff fd77 	bl	800093c <main>
  bx  lr    
 8000e4e:	4770      	bx	lr
  ldr   sp, =_estack      /* set stack pointer */
 8000e50:	20080000 	.word	0x20080000
  ldr r0, =_sdata
 8000e54:	20000000 	.word	0x20000000
  ldr r1, =_edata
 8000e58:	20000010 	.word	0x20000010
  ldr r2, =_sidata
 8000e5c:	08001674 	.word	0x08001674
  ldr r2, =_sbss
 8000e60:	20000010 	.word	0x20000010
  ldr r4, =_ebss
 8000e64:	20000030 	.word	0x20000030

08000e68 <ADC_IRQHandler>:
 * @retval None       
*/
    .section  .text.Default_Handler,"ax",%progbits
Default_Handler:
Infinite_Loop:
  b  Infinite_Loop
 8000e68:	e7fe      	b.n	8000e68 <ADC_IRQHandler>
	...

08000e6c <HAL_IncTick>:
 * @note This function is declared as __weak to be overwritten in case of other 
  *      implementations in user file.
  * @retval None
  */
__weak void HAL_IncTick(void)
{
 8000e6c:	b480      	push	{r7}
 8000e6e:	af00      	add	r7, sp, #0
  uwTick += uwTickFreq;
 8000e70:	4b06      	ldr	r3, [pc, #24]	@ (8000e8c <HAL_IncTick+0x20>)
 8000e72:	781b      	ldrb	r3, [r3, #0]
 8000e74:	461a      	mov	r2, r3
 8000e76:	4b06      	ldr	r3, [pc, #24]	@ (8000e90 <HAL_IncTick+0x24>)
 8000e78:	681b      	ldr	r3, [r3, #0]
 8000e7a:	4413      	add	r3, r2
 8000e7c:	4a04      	ldr	r2, [pc, #16]	@ (8000e90 <HAL_IncTick+0x24>)
 8000e7e:	6013      	str	r3, [r2, #0]
}
 8000e80:	bf00      	nop
 8000e82:	46bd      	mov	sp, r7
 8000e84:	f85d 7b04 	ldr.w	r7, [sp], #4
 8000e88:	4770      	bx	lr
 8000e8a:	bf00      	nop
 8000e8c:	2000000c 	.word	0x2000000c
 8000e90:	2000002c 	.word	0x2000002c

08000e94 <__libc_init_array>:
 8000e94:	b570      	push	{r4, r5, r6, lr}
 8000e96:	4b0d      	ldr	r3, [pc, #52]	@ (8000ecc <__libc_init_array+0x38>)
 8000e98:	4d0d      	ldr	r5, [pc, #52]	@ (8000ed0 <__libc_init_array+0x3c>)
 8000e9a:	1b5b      	subs	r3, r3, r5
 8000e9c:	109c      	asrs	r4, r3, #2
 8000e9e:	2600      	movs	r6, #0
 8000ea0:	42a6      	cmp	r6, r4
 8000ea2:	d109      	bne.n	8000eb8 <__libc_init_array+0x24>
 8000ea4:	f000 f81a 	bl	8000edc <_init>
 8000ea8:	4d0a      	ldr	r5, [pc, #40]	@ (8000ed4 <__libc_init_array+0x40>)
 8000eaa:	4b0b      	ldr	r3, [pc, #44]	@ (8000ed8 <__libc_init_array+0x44>)
 8000eac:	1b5b      	subs	r3, r3, r5
 8000eae:	109c      	asrs	r4, r3, #2
 8000eb0:	2600      	movs	r6, #0
 8000eb2:	42a6      	cmp	r6, r4
 8000eb4:	d105      	bne.n	8000ec2 <__libc_init_array+0x2e>
 8000eb6:	bd70      	pop	{r4, r5, r6, pc}
 8000eb8:	f855 3b04 	ldr.w	r3, [r5], #4
 8000ebc:	4798      	blx	r3
 8000ebe:	3601      	adds	r6, #1
 8000ec0:	e7ee      	b.n	8000ea0 <__libc_init_array+0xc>
 8000ec2:	f855 3b04 	ldr.w	r3, [r5], #4
 8000ec6:	4798      	blx	r3
 8000ec8:	3601      	adds	r6, #1
 8000eca:	e7f2      	b.n	8000eb2 <__libc_init_array+0x1e>
 8000ecc:	0800166c 	.word	0x0800166c
 8000ed0:	0800166c 	.word	0x0800166c
 8000ed4:	0800166c 	.word	0x0800166c
 8000ed8:	08001670 	.word	0x08001670

08000edc <_init>:
 8000edc:	b5f8      	push	{r3, r4, r5, r6, r7, lr}
 8000ede:	bf00      	nop
 8000ee0:	bcf8      	pop	{r3, r4, r5, r6, r7}
 8000ee2:	bc08      	pop	{r3}
 8000ee4:	469e      	mov	lr, r3
 8000ee6:	4770      	bx	lr

08000ee8 <_fini>:
 8000ee8:	b5f8      	push	{r3, r4, r5, r6, r7, lr}
 8000eea:	bf00      	nop
 8000eec:	bcf8      	pop	{r3, r4, r5, r6, r7}
 8000eee:	bc08      	pop	{r3}
 8000ef0:	469e      	mov	lr, r3
 8000ef2:	4770      	bx	lr
